
hello:     file format elf64-littleriscv


Disassembly of section .text:

0000000000010000 <_ftext>:
   10000:	0000c197          	auipc	gp,0xc
   10004:	ad018193          	addi	gp,gp,-1328 # 1bad0 <_gp>
   10008:	0000b297          	auipc	t0,0xb
   1000c:	36028293          	addi	t0,t0,864 # 1b368 <_PathLocale>
   10010:	0000b317          	auipc	t1,0xb
   10014:	3f830313          	addi	t1,t1,1016 # 1b408 <_end>
   10018:	0002b023          	sd	zero,0(t0)
   1001c:	00828293          	addi	t0,t0,8
   10020:	fe62ece3          	bltu	t0,t1,10018 <_ftext+0x18>
   10024:	00000517          	auipc	a0,0x0
   10028:	1c850513          	addi	a0,a0,456 # 101ec <__libc_fini_array>
   1002c:	17c000ef          	jal	101a8 <atexit>
   10030:	218000ef          	jal	10248 <__libc_init_array>
   10034:	00012503          	lw	a0,0(sp)
   10038:	00810593          	addi	a1,sp,8
   1003c:	00000613          	li	a2,0
   10040:	124000ef          	jal	10164 <main>
   10044:	1780006f          	j	101bc <exit>

0000000000010048 <_fini>:
   10048:	00008067          	ret

000000000001004c <deregister_tm_clones>:
   1004c:	0001b537          	lui	a0,0x1b
   10050:	0001b7b7          	lui	a5,0x1b
   10054:	2c850713          	addi	a4,a0,712 # 1b2c8 <__TMC_END__>
   10058:	2cf78793          	addi	a5,a5,719 # 1b2cf <__TMC_END__+0x7>
   1005c:	40e787b3          	sub	a5,a5,a4
   10060:	00e00713          	li	a4,14
   10064:	00f77c63          	bleu	a5,a4,1007c <deregister_tm_clones+0x30>
   10068:	00000337          	lui	t1,0x0
   1006c:	00030313          	mv	t1,t1
   10070:	00030663          	beqz	t1,1007c <deregister_tm_clones+0x30>
   10074:	2c850513          	addi	a0,a0,712
   10078:	00030067          	jr	t1
   1007c:	00008067          	ret

0000000000010080 <register_tm_clones>:
   10080:	0001b537          	lui	a0,0x1b
   10084:	0001b7b7          	lui	a5,0x1b
   10088:	2c850593          	addi	a1,a0,712 # 1b2c8 <__TMC_END__>
   1008c:	2c878793          	addi	a5,a5,712 # 1b2c8 <__TMC_END__>
   10090:	40b787b3          	sub	a5,a5,a1
   10094:	4037d793          	srai	a5,a5,0x3
   10098:	03f7d593          	srli	a1,a5,0x3f
   1009c:	00f585b3          	add	a1,a1,a5
   100a0:	4015d593          	srai	a1,a1,0x1
   100a4:	00058c63          	beqz	a1,100bc <register_tm_clones+0x3c>
   100a8:	00000337          	lui	t1,0x0
   100ac:	00030313          	mv	t1,t1
   100b0:	00030663          	beqz	t1,100bc <register_tm_clones+0x3c>
   100b4:	2c850513          	addi	a0,a0,712
   100b8:	00030067          	jr	t1
   100bc:	00008067          	ret

00000000000100c0 <__do_global_dtors_aux>:
   100c0:	ff010113          	addi	sp,sp,-16
   100c4:	00813023          	sd	s0,0(sp)
   100c8:	8c81c783          	lbu	a5,-1848(gp) # 1b398 <_bss_start>
   100cc:	00113423          	sd	ra,8(sp)
   100d0:	02079663          	bnez	a5,100fc <__do_global_dtors_aux+0x3c>
   100d4:	f79ff0ef          	jal	1004c <deregister_tm_clones>
   100d8:	000007b7          	lui	a5,0x0
   100dc:	00078793          	mv	a5,a5
   100e0:	00078a63          	beqz	a5,100f4 <__do_global_dtors_aux+0x34>
   100e4:	00019537          	lui	a0,0x19
   100e8:	2a050513          	addi	a0,a0,672 # 192a0 <__fini_array_end>
   100ec:	ffff0317          	auipc	t1,0xffff0
   100f0:	f14300e7          	jalr	t1,-236 # 0 <_ftext-0x10000>
   100f4:	00100793          	li	a5,1
   100f8:	8cf18423          	sb	a5,-1848(gp) # 1b398 <_bss_start>
   100fc:	00813083          	ld	ra,8(sp)
   10100:	00013403          	ld	s0,0(sp)
   10104:	01010113          	addi	sp,sp,16
   10108:	00008067          	ret

000000000001010c <frame_dummy>:
   1010c:	ff010113          	addi	sp,sp,-16
   10110:	000007b7          	lui	a5,0x0
   10114:	00113423          	sd	ra,8(sp)
   10118:	00078793          	mv	a5,a5
   1011c:	00078c63          	beqz	a5,10134 <frame_dummy+0x28>
   10120:	00019537          	lui	a0,0x19
   10124:	8d018593          	addi	a1,gp,-1840 # 1b3a0 <object.3092>
   10128:	2a050513          	addi	a0,a0,672 # 192a0 <__fini_array_end>
   1012c:	ffff0317          	auipc	t1,0xffff0
   10130:	ed4300e7          	jalr	t1,-300 # 0 <_ftext-0x10000>
   10134:	0001a7b7          	lui	a5,0x1a
   10138:	2c878513          	addi	a0,a5,712 # 1a2c8 <__JCR_END__>
   1013c:	00053783          	ld	a5,0(a0)
   10140:	00079863          	bnez	a5,10150 <frame_dummy+0x44>
   10144:	00813083          	ld	ra,8(sp)
   10148:	01010113          	addi	sp,sp,16
   1014c:	f35ff06f          	j	10080 <register_tm_clones>
   10150:	000007b7          	lui	a5,0x0
   10154:	00078793          	mv	a5,a5
   10158:	fe0786e3          	beqz	a5,10144 <frame_dummy+0x38>
   1015c:	000780e7          	jalr	a5
   10160:	fe5ff06f          	j	10144 <frame_dummy+0x38>

0000000000010164 <main>:
   10164:	fe010113          	addi	sp,sp,-32
   10168:	00113c23          	sd	ra,24(sp)
   1016c:	00813823          	sd	s0,16(sp)
   10170:	02010413          	addi	s0,sp,32
   10174:	000197b7          	lui	a5,0x19
   10178:	dc07b787          	fld	fa5,-576(a5) # 18dc0 <__errno+0x10>
   1017c:	fef43427          	fsd	fa5,-24(s0)
   10180:	fe843583          	ld	a1,-24(s0)
   10184:	000197b7          	lui	a5,0x19
   10188:	db878513          	addi	a0,a5,-584 # 18db8 <__errno+0x8>
   1018c:	1a0000ef          	jal	1032c <printf>
   10190:	00000793          	li	a5,0
   10194:	00078513          	mv	a0,a5
   10198:	01813083          	ld	ra,24(sp)
   1019c:	01013403          	ld	s0,16(sp)
   101a0:	02010113          	addi	sp,sp,32
   101a4:	00008067          	ret

00000000000101a8 <atexit>:
int
_DEFUN (atexit,
	(fn),
	_VOID _EXFNPTR(fn, (_VOID)))
{
  return __register_exitproc (__et_atexit, fn, NULL, NULL);
   101a8:	00050593          	mv	a1,a0
   101ac:	00000693          	li	a3,0
   101b0:	00000613          	li	a2,0
   101b4:	00000513          	li	a0,0
   101b8:	0840206f          	j	1223c <__register_exitproc>

00000000000101bc <exit>:
 */

void
_DEFUN (exit, (code),
	int code)
{
   101bc:	ff010113          	addi	sp,sp,-16
#ifdef _LITE_EXIT
  /* Refer to comments in __atexit.c for more details of lite exit.  */
  void __call_exitprocs _PARAMS ((int, _PTR)) __attribute__((weak));
  if (__call_exitprocs)
#endif
    __call_exitprocs (code, NULL);
   101c0:	00000593          	li	a1,0
 */

void
_DEFUN (exit, (code),
	int code)
{
   101c4:	00813023          	sd	s0,0(sp)
   101c8:	00113423          	sd	ra,8(sp)
   101cc:	00050413          	mv	s0,a0
#ifdef _LITE_EXIT
  /* Refer to comments in __atexit.c for more details of lite exit.  */
  void __call_exitprocs _PARAMS ((int, _PTR)) __attribute__((weak));
  if (__call_exitprocs)
#endif
    __call_exitprocs (code, NULL);
   101d0:	180020ef          	jal	12350 <__call_exitprocs>

  if (_GLOBAL_REENT->__cleanup)
   101d4:	8081b503          	ld	a0,-2040(gp) # 1b2d8 <_global_impure_ptr>
   101d8:	05853783          	ld	a5,88(a0)
   101dc:	00078463          	beqz	a5,101e4 <exit+0x28>
    (*_GLOBAL_REENT->__cleanup) (_GLOBAL_REENT);
   101e0:	000780e7          	jalr	a5
  _exit (code);
   101e4:	00040513          	mv	a0,s0
   101e8:	3ad080ef          	jal	18d94 <_exit>

00000000000101ec <__libc_fini_array>:
extern void _fini (void);

/* Run all the cleanup routines.  */
void
__libc_fini_array (void)
{
   101ec:	fe010113          	addi	sp,sp,-32
   101f0:	00813823          	sd	s0,16(sp)
   101f4:	00913423          	sd	s1,8(sp)
  size_t count;
  size_t i;
  
  count = __fini_array_end - __fini_array_start;
   101f8:	00019437          	lui	s0,0x19
   101fc:	000194b7          	lui	s1,0x19
   10200:	29848493          	addi	s1,s1,664 # 19298 <__init_array_end>
   10204:	2a040413          	addi	s0,s0,672 # 192a0 <__fini_array_end>
   10208:	40940433          	sub	s0,s0,s1
   1020c:	ff840793          	addi	a5,s0,-8
extern void _fini (void);

/* Run all the cleanup routines.  */
void
__libc_fini_array (void)
{
   10210:	00113c23          	sd	ra,24(sp)
  size_t count;
  size_t i;
  
  count = __fini_array_end - __fini_array_start;
   10214:	40345413          	srai	s0,s0,0x3
   10218:	009784b3          	add	s1,a5,s1
  for (i = count; i > 0; i--)
   1021c:	00040c63          	beqz	s0,10234 <__libc_fini_array+0x48>
    __fini_array_start[i-1] ();
   10220:	0004b783          	ld	a5,0(s1)
   10224:	fff40413          	addi	s0,s0,-1
   10228:	ff848493          	addi	s1,s1,-8
   1022c:	000780e7          	jalr	a5
{
  size_t count;
  size_t i;
  
  count = __fini_array_end - __fini_array_start;
  for (i = count; i > 0; i--)
   10230:	fe0418e3          	bnez	s0,10220 <__libc_fini_array+0x34>
    __fini_array_start[i-1] ();

  _fini ();
}
   10234:	01813083          	ld	ra,24(sp)
   10238:	01013403          	ld	s0,16(sp)
   1023c:	00813483          	ld	s1,8(sp)
   10240:	02010113          	addi	sp,sp,32
  
  count = __fini_array_end - __fini_array_start;
  for (i = count; i > 0; i--)
    __fini_array_start[i-1] ();

  _fini ();
   10244:	e05ff06f          	j	10048 <_fini>

0000000000010248 <__libc_init_array>:
extern void _init (void);

/* Iterate over all the init routines.  */
void
__libc_init_array (void)
{
   10248:	fe010113          	addi	sp,sp,-32
   1024c:	00813823          	sd	s0,16(sp)
  size_t count;
  size_t i;

  count = __preinit_array_end - __preinit_array_start;
   10250:	000197b7          	lui	a5,0x19
   10254:	00019437          	lui	s0,0x19
extern void _init (void);

/* Iterate over all the init routines.  */
void
__libc_init_array (void)
{
   10258:	01213023          	sd	s2,0(sp)
  size_t count;
  size_t i;

  count = __preinit_array_end - __preinit_array_start;
   1025c:	29078793          	addi	a5,a5,656 # 19290 <_etext>
   10260:	29040913          	addi	s2,s0,656 # 19290 <_etext>
   10264:	41278933          	sub	s2,a5,s2
extern void _init (void);

/* Iterate over all the init routines.  */
void
__libc_init_array (void)
{
   10268:	00913423          	sd	s1,8(sp)
   1026c:	00113c23          	sd	ra,24(sp)
  size_t count;
  size_t i;

  count = __preinit_array_end - __preinit_array_start;
   10270:	40395913          	srai	s2,s2,0x3
   10274:	29040413          	addi	s0,s0,656
   10278:	00000493          	li	s1,0
  for (i = 0; i < count; i++)
   1027c:	00090c63          	beqz	s2,10294 <__libc_init_array+0x4c>
    __preinit_array_start[i] ();
   10280:	00043783          	ld	a5,0(s0)
{
  size_t count;
  size_t i;

  count = __preinit_array_end - __preinit_array_start;
  for (i = 0; i < count; i++)
   10284:	00148493          	addi	s1,s1,1
   10288:	00840413          	addi	s0,s0,8
    __preinit_array_start[i] ();
   1028c:	000780e7          	jalr	a5
{
  size_t count;
  size_t i;

  count = __preinit_array_end - __preinit_array_start;
  for (i = 0; i < count; i++)
   10290:	fe9918e3          	bne	s2,s1,10280 <__libc_init_array+0x38>
    __preinit_array_start[i] ();

  _init ();
   10294:	db5ff0ef          	jal	10048 <_fini>

  count = __init_array_end - __init_array_start;
   10298:	00019437          	lui	s0,0x19
   1029c:	000197b7          	lui	a5,0x19
   102a0:	29040913          	addi	s2,s0,656 # 19290 <_etext>
   102a4:	29878793          	addi	a5,a5,664 # 19298 <__init_array_end>
   102a8:	41278933          	sub	s2,a5,s2
   102ac:	40395913          	srai	s2,s2,0x3
   102b0:	29040413          	addi	s0,s0,656
  for (i = 0; i < count; i++)
   102b4:	00000493          	li	s1,0
   102b8:	00090c63          	beqz	s2,102d0 <__libc_init_array+0x88>
    __init_array_start[i] ();
   102bc:	00043783          	ld	a5,0(s0)
    __preinit_array_start[i] ();

  _init ();

  count = __init_array_end - __init_array_start;
  for (i = 0; i < count; i++)
   102c0:	00148493          	addi	s1,s1,1
   102c4:	00840413          	addi	s0,s0,8
    __init_array_start[i] ();
   102c8:	000780e7          	jalr	a5
    __preinit_array_start[i] ();

  _init ();

  count = __init_array_end - __init_array_start;
  for (i = 0; i < count; i++)
   102cc:	fe9918e3          	bne	s2,s1,102bc <__libc_init_array+0x74>
    __init_array_start[i] ();
}
   102d0:	01813083          	ld	ra,24(sp)
   102d4:	01013403          	ld	s0,16(sp)
   102d8:	00813483          	ld	s1,8(sp)
   102dc:	00013903          	ld	s2,0(sp)
   102e0:	02010113          	addi	sp,sp,32
   102e4:	00008067          	ret

00000000000102e8 <_printf_r>:

int
_DEFUN(_printf_r, (ptr, fmt),
       struct _reent *ptr _AND
       const char *__restrict fmt _DOTS)
{
   102e8:	fb010113          	addi	sp,sp,-80
   102ec:	02c13023          	sd	a2,32(sp)
   102f0:	02d13423          	sd	a3,40(sp)
   102f4:	02f13c23          	sd	a5,56(sp)
   102f8:	02e13823          	sd	a4,48(sp)
   102fc:	05013023          	sd	a6,64(sp)
   10300:	05113423          	sd	a7,72(sp)
  int ret;
  va_list ap;

  _REENT_SMALL_CHECK_INIT (ptr);
  va_start (ap, fmt);
  ret = _vfprintf_r (ptr, _stdout_r (ptr), fmt, ap);
   10304:	00058613          	mv	a2,a1
   10308:	01053583          	ld	a1,16(a0)
{
  int ret;
  va_list ap;

  _REENT_SMALL_CHECK_INIT (ptr);
  va_start (ap, fmt);
   1030c:	02010793          	addi	a5,sp,32
  ret = _vfprintf_r (ptr, _stdout_r (ptr), fmt, ap);
   10310:	00078693          	mv	a3,a5

int
_DEFUN(_printf_r, (ptr, fmt),
       struct _reent *ptr _AND
       const char *__restrict fmt _DOTS)
{
   10314:	00113c23          	sd	ra,24(sp)
  int ret;
  va_list ap;

  _REENT_SMALL_CHECK_INIT (ptr);
  va_start (ap, fmt);
   10318:	00f13423          	sd	a5,8(sp)
  ret = _vfprintf_r (ptr, _stdout_r (ptr), fmt, ap);
   1031c:	060000ef          	jal	1037c <_vfprintf_r>
  va_end (ap);
  return ret;
}
   10320:	01813083          	ld	ra,24(sp)
   10324:	05010113          	addi	sp,sp,80
   10328:	00008067          	ret

000000000001032c <printf>:
_DEFUN(printf, (fmt),
       const char *__restrict fmt _DOTS)
{
  int ret;
  va_list ap;
  struct _reent *ptr = _REENT;
   1032c:	8101b303          	ld	t1,-2032(gp) # 1b2e0 <_impure_ptr>
#ifndef _REENT_ONLY

int
_DEFUN(printf, (fmt),
       const char *__restrict fmt _DOTS)
{
   10330:	fa010113          	addi	sp,sp,-96
   10334:	02c13823          	sd	a2,48(sp)
   10338:	02d13c23          	sd	a3,56(sp)
   1033c:	04f13423          	sd	a5,72(sp)
   10340:	02b13423          	sd	a1,40(sp)
   10344:	04e13023          	sd	a4,64(sp)
   10348:	05013823          	sd	a6,80(sp)
   1034c:	05113c23          	sd	a7,88(sp)
  va_list ap;
  struct _reent *ptr = _REENT;

  _REENT_SMALL_CHECK_INIT (ptr);
  va_start (ap, fmt);
  ret = _vfprintf_r (ptr, _stdout_r (ptr), fmt, ap);
   10350:	01033583          	ld	a1,16(t1)
  int ret;
  va_list ap;
  struct _reent *ptr = _REENT;

  _REENT_SMALL_CHECK_INIT (ptr);
  va_start (ap, fmt);
   10354:	02810793          	addi	a5,sp,40
  ret = _vfprintf_r (ptr, _stdout_r (ptr), fmt, ap);
   10358:	00050613          	mv	a2,a0
   1035c:	00078693          	mv	a3,a5
   10360:	00030513          	mv	a0,t1
#ifndef _REENT_ONLY

int
_DEFUN(printf, (fmt),
       const char *__restrict fmt _DOTS)
{
   10364:	00113c23          	sd	ra,24(sp)
  int ret;
  va_list ap;
  struct _reent *ptr = _REENT;

  _REENT_SMALL_CHECK_INIT (ptr);
  va_start (ap, fmt);
   10368:	00f13423          	sd	a5,8(sp)
  ret = _vfprintf_r (ptr, _stdout_r (ptr), fmt, ap);
   1036c:	010000ef          	jal	1037c <_vfprintf_r>
  va_end (ap);
  return ret;
}
   10370:	01813083          	ld	ra,24(sp)
   10374:	06010113          	addi	sp,sp,96
   10378:	00008067          	ret

000000000001037c <_vfprintf_r>:
_DEFUN(_VFPRINTF_R, (data, fp, fmt0, ap),
       struct _reent *data _AND
       FILE * fp           _AND
       _CONST char *fmt0   _AND
       va_list ap)
{
   1037c:	e1010113          	addi	sp,sp,-496
   10380:	1e113423          	sd	ra,488(sp)
   10384:	1d313423          	sd	s3,456(sp)
   10388:	1d413023          	sd	s4,448(sp)
   1038c:	1b713423          	sd	s7,424(sp)
   10390:	00058a13          	mv	s4,a1
   10394:	00060993          	mv	s3,a2
   10398:	02d13423          	sd	a3,40(sp)
   1039c:	1e813023          	sd	s0,480(sp)
   103a0:	1c913c23          	sd	s1,472(sp)
   103a4:	1d213823          	sd	s2,464(sp)
   103a8:	1b513c23          	sd	s5,440(sp)
   103ac:	1b613823          	sd	s6,432(sp)
   103b0:	1b813023          	sd	s8,416(sp)
   103b4:	19913c23          	sd	s9,408(sp)
   103b8:	19a13823          	sd	s10,400(sp)
   103bc:	19b13423          	sd	s11,392(sp)
   103c0:	16813c27          	fsd	fs0,376(sp)
   103c4:	00050b93          	mv	s7,a0
	char *thousands_sep = NULL;
	size_t thsnd_len = 0;
	const char *grouping = NULL;
#endif
#ifdef FLOATING_POINT
	char *decimal_point = _localeconv_r (data)->decimal_point;
   103c8:	094040ef          	jal	1445c <_localeconv_r>
   103cc:	00053783          	ld	a5,0(a0)
	size_t decp_len = strlen (decimal_point);
   103d0:	00078513          	mv	a0,a5
	char *thousands_sep = NULL;
	size_t thsnd_len = 0;
	const char *grouping = NULL;
#endif
#ifdef FLOATING_POINT
	char *decimal_point = _localeconv_r (data)->decimal_point;
   103d4:	06f13023          	sd	a5,96(sp)
	size_t decp_len = strlen (decimal_point);
   103d8:	00c060ef          	jal	163e4 <strlen>
   103dc:	06a13423          	sd	a0,104(sp)
	    (u_long)GET_ARG (N, ap, u_int))
#endif

#ifndef STRING_ONLY
	/* Initialize std streams if not dealing with sprintf family.  */
	CHECK_INIT (data, fp);
   103e0:	000b8663          	beqz	s7,103ec <_vfprintf_r+0x70>
   103e4:	050ba783          	lw	a5,80(s7)
   103e8:	2e078c63          	beqz	a5,106e0 <_vfprintf_r+0x364>
	_newlib_flockfile_start (fp);

	ORIENT(fp, -1);
   103ec:	010a1683          	lh	a3,16(s4)
   103f0:	03069793          	slli	a5,a3,0x30
   103f4:	0307d793          	srli	a5,a5,0x30
   103f8:	03279713          	slli	a4,a5,0x32
   103fc:	02074a63          	bltz	a4,10430 <_vfprintf_r+0xb4>
   10400:	000027b7          	lui	a5,0x2
#endif

#ifndef STRING_ONLY
	/* Initialize std streams if not dealing with sprintf family.  */
	CHECK_INIT (data, fp);
	_newlib_flockfile_start (fp);
   10404:	0aca2603          	lw	a2,172(s4)

	ORIENT(fp, -1);
   10408:	00f6e7b3          	or	a5,a3,a5
   1040c:	0107979b          	slliw	a5,a5,0x10
   10410:	ffffe737          	lui	a4,0xffffe
   10414:	4107d79b          	sraiw	a5,a5,0x10
   10418:	fff7071b          	addiw	a4,a4,-1
   1041c:	00e67733          	and	a4,a2,a4
   10420:	00fa1823          	sh	a5,16(s4)
   10424:	03079793          	slli	a5,a5,0x30
   10428:	0aea2623          	sw	a4,172(s4)
   1042c:	0307d793          	srli	a5,a5,0x30

	/* sorry, fprintf(read_only_file, "") returns EOF, not 0 */
	if (cantwrite (data, fp)) {
   10430:	0087f713          	andi	a4,a5,8
   10434:	1e070063          	beqz	a4,10614 <_vfprintf_r+0x298>
   10438:	018a3703          	ld	a4,24(s4)
   1043c:	1c070c63          	beqz	a4,10614 <_vfprintf_r+0x298>
		return (EOF);
	}

#ifdef _UNBUF_STREAM_OPT
	/* optimise fprintf(stderr) (and other unbuffered Unix files) */
	if ((fp->_flags & (__SNBF|__SWR|__SRW)) == (__SNBF|__SWR) &&
   10440:	01a7f793          	andi	a5,a5,26
   10444:	00a00713          	li	a4,10
   10448:	1ee78863          	beq	a5,a4,10638 <_vfprintf_r+0x2bc>
		N = arg_index;
		is_pos_arg = 0;
#endif

rflag:		ch = *fmt++;
reswitch:	switch (ch) {
   1044c:	000197b7          	lui	a5,0x19
   10450:	dc878793          	addi	a5,a5,-568 # 18dc8 <__errno+0x18>
        }
#endif /* STRING_ONLY */

	fmt = (char *)fmt0;
#ifdef _FVWRITE_IN_STREAMIO
	uio.uio_iov = iovp = iov;
   10454:	0f010b13          	addi	s6,sp,240
		N = arg_index;
		is_pos_arg = 0;
#endif

rflag:		ch = *fmt++;
reswitch:	switch (ch) {
   10458:	02f13823          	sd	a5,48(sp)
   1045c:	0ef10793          	addi	a5,sp,239
   10460:	00019ab7          	lui	s5,0x19
   10464:	000194b7          	lui	s1,0x19
   10468:	40fb07b3          	sub	a5,s6,a5
#endif
#ifdef FLOATING_POINT
	char *decimal_point = _localeconv_r (data)->decimal_point;
	size_t decp_len = strlen (decimal_point);
	char softsign;		/* temporary negative sign for floats */
	union { int i; _PRINTF_FLOAT_TYPE fp; } _double_ = {0};
   1046c:	04013c23          	sd	zero,88(sp)
        }
#endif /* STRING_ONLY */

	fmt = (char *)fmt0;
#ifdef _FVWRITE_IN_STREAMIO
	uio.uio_iov = iovp = iov;
   10470:	0b613823          	sd	s6,176(sp)
	uio.uio_resid = 0;
   10474:	0c013023          	sd	zero,192(sp)
	uio.uio_iovcnt = 0;
   10478:	0a012c23          	sw	zero,184(sp)
	int expsize = 0;	/* character count for expstr */
	char expstr[MAXEXPLEN];	/* buffer for exponent string */
	int lead;		/* sig figs before decimal or group sep */
#endif /* FLOATING_POINT */
#if defined (FLOATING_POINT) || defined (_WANT_IO_C99_FORMATS)
	int ndig = 0;		/* actual number of digits returned by cvt */
   1047c:	06012823          	sw	zero,112(sp)
        }
#endif /* STRING_ONLY */

	fmt = (char *)fmt0;
#ifdef _FVWRITE_IN_STREAMIO
	uio.uio_iov = iovp = iov;
   10480:	000b0893          	mv	a7,s6
	u_quad_t _uquad;	/* integer arguments %[diouxX] */
	enum { OCT, DEC, HEX } base;/* base for [diouxX] conversion */
	int dprec;		/* a copy of prec if [diouxX], 0 otherwise */
	int realsz;		/* field size expanded by dprec */
	int size;		/* size of converted field or string */
	char *xdigs = NULL;	/* digits for [xX] conversion */
   10484:	02013c23          	sd	zero,56(sp)
	size_t decp_len = strlen (decimal_point);
	char softsign;		/* temporary negative sign for floats */
	union { int i; _PRINTF_FLOAT_TYPE fp; } _double_ = {0};
# define _fpvalue (_double_.fp)
	int expt;		/* integer value of exponent */
	int expsize = 0;	/* character count for expstr */
   10488:	06012a23          	sw	zero,116(sp)
#ifdef _FVWRITE_IN_STREAMIO
	uio.uio_iov = iovp = iov;
	uio.uio_resid = 0;
	uio.uio_iovcnt = 0;
#endif
	ret = 0;
   1048c:	00012e23          	sw	zero,28(sp)
   10490:	f30a8a93          	addi	s5,s5,-208 # 18f30 <blanks.4193>
   10494:	f4048493          	addi	s1,s1,-192 # 18f40 <zeroes.4194>
   10498:	06f13c23          	sd	a5,120(sp)
                    else if (wc == '%')
                        break;
                    fmt += n;
		}
#else
                while (*fmt != '\0' && *fmt != '%')
   1049c:	0009c783          	lbu	a5,0(s3)
   104a0:	0e0782e3          	beqz	a5,10d84 <_vfprintf_r+0xa08>
   104a4:	02500713          	li	a4,37
   104a8:	00098413          	mv	s0,s3
   104ac:	00e79663          	bne	a5,a4,104b8 <_vfprintf_r+0x13c>
   104b0:	0580006f          	j	10508 <_vfprintf_r+0x18c>
   104b4:	00e78863          	beq	a5,a4,104c4 <_vfprintf_r+0x148>
                    fmt += 1;
   104b8:	00140413          	addi	s0,s0,1
                    else if (wc == '%')
                        break;
                    fmt += n;
		}
#else
                while (*fmt != '\0' && *fmt != '%')
   104bc:	00044783          	lbu	a5,0(s0)
   104c0:	fe079ae3          	bnez	a5,104b4 <_vfprintf_r+0x138>
   104c4:	4134093b          	subw	s2,s0,s3
                    fmt += 1;
#endif
		if ((m = fmt - cp) != 0) {
   104c8:	04090063          	beqz	s2,10508 <_vfprintf_r+0x18c>
			PRINT (cp, m);
   104cc:	0c013703          	ld	a4,192(sp)
   104d0:	0b812783          	lw	a5,184(sp)
   104d4:	00090693          	mv	a3,s2
   104d8:	00d70733          	add	a4,a4,a3
   104dc:	0017879b          	addiw	a5,a5,1
   104e0:	0138b023          	sd	s3,0(a7)
   104e4:	00d8b423          	sd	a3,8(a7)
   104e8:	0ce13023          	sd	a4,192(sp)
   104ec:	0af12c23          	sw	a5,184(sp)
   104f0:	00700713          	li	a4,7
   104f4:	01088893          	addi	a7,a7,16
   104f8:	16f74063          	blt	a4,a5,10658 <_vfprintf_r+0x2dc>
			ret += m;
   104fc:	01c12783          	lw	a5,28(sp)
   10500:	012787bb          	addw	a5,a5,s2
   10504:	00f12e23          	sw	a5,28(sp)
		}
#ifdef _MB_CAPABLE
		if (n <= 0)
                    goto done;
#else
                if (*fmt == '\0')
   10508:	00044783          	lbu	a5,0(s0)
   1050c:	16078463          	beqz	a5,10674 <_vfprintf_r+0x2f8>
                    goto done;
#endif
		fmt_anchor = fmt;
		fmt++;		/* skip over '%' */
   10510:	00140993          	addi	s3,s0,1

		flags = 0;
		dprec = 0;
		width = 0;
		prec = -1;
		sign = '\0';
   10514:	080107a3          	sb	zero,143(sp)
   10518:	00000613          	li	a2,0
   1051c:	00000593          	li	a1,0
		fmt++;		/* skip over '%' */

		flags = 0;
		dprec = 0;
		width = 0;
		prec = -1;
   10520:	fff00413          	li	s0,-1
		fmt_anchor = fmt;
		fmt++;		/* skip over '%' */

		flags = 0;
		dprec = 0;
		width = 0;
   10524:	00012c23          	sw	zero,24(sp)
                    goto done;
#endif
		fmt_anchor = fmt;
		fmt++;		/* skip over '%' */

		flags = 0;
   10528:	00000c13          	li	s8,0
		N = arg_index;
		is_pos_arg = 0;
#endif

rflag:		ch = *fmt++;
reswitch:	switch (ch) {
   1052c:	05800713          	li	a4,88
		case '5': case '6': case '7': case '8': case '9':
			n = 0;
			do {
				n = 10 * n + to_digit (ch);
				ch = *fmt++;
			} while (is_digit (ch));
   10530:	00900693          	li	a3,9
			goto rflag;
		case '+':
			sign = '+';
			goto rflag;
		case '.':
			if ((ch = *fmt++) == '*') {
   10534:	02a00513          	li	a0,42
#ifndef _NO_POS_ARGS
		N = arg_index;
		is_pos_arg = 0;
#endif

rflag:		ch = *fmt++;
   10538:	0009cd03          	lbu	s10,0(s3)
   1053c:	00198993          	addi	s3,s3,1
reswitch:	switch (ch) {
   10540:	fe0d079b          	addiw	a5,s10,-32
   10544:	1cf762e3          	bltu	a4,a5,10f08 <_vfprintf_r+0xb8c>
   10548:	03013803          	ld	a6,48(sp)
   1054c:	02079793          	slli	a5,a5,0x20
   10550:	01e7d793          	srli	a5,a5,0x1e
   10554:	010787b3          	add	a5,a5,a6
   10558:	0007a783          	lw	a5,0(a5)
   1055c:	00078067          	jr	a5
			} else
#endif
				flags |= LONGINT;
			goto rflag;
		case 'q': /* extension */
			flags |= QUADINT;
   10560:	010c6c13          	ori	s8,s8,16
			goto rflag;
   10564:	fd5ff06f          	j	10538 <_vfprintf_r+0x1bc>
			 * ``A negative field width argument is taken as a
			 * - flag followed by a positive field width.''
			 *	-- ANSI X3J11
			 * They don't exclude field widths read from args.
			 */
			width = GET_ARG (n, ap, int);
   10568:	02813783          	ld	a5,40(sp)
   1056c:	0007a803          	lw	a6,0(a5)
   10570:	00878793          	addi	a5,a5,8
   10574:	02f13423          	sd	a5,40(sp)
   10578:	01012c23          	sw	a6,24(sp)
#ifndef _NO_POS_ARGS
			is_pos_arg = old_is_pos_arg;
#endif
			if (width >= 0)
   1057c:	fa085ee3          	bgez	a6,10538 <_vfprintf_r+0x1bc>
				goto rflag;
			width = -width;
   10580:	410007bb          	negw	a5,a6
   10584:	00f12c23          	sw	a5,24(sp)
			/* FALLTHROUGH */
		case '-':
			flags |= LADJUST;
   10588:	004c6c13          	ori	s8,s8,4
			goto rflag;
   1058c:	fadff06f          	j	10538 <_vfprintf_r+0x1bc>
			/* NOSTRICT */
			_uquad = (uintptr_t) GET_ARG (N, ap, void_ptr_t);
			base = HEX;
			xdigs = "0123456789abcdef";
			flags |= HEXPREFIX;
			ox[0] = '0';
   10590:	03000793          	li	a5,48
   10594:	08f10823          	sb	a5,144(sp)
			ox[1] = ch = 'x';
   10598:	07800793          	li	a5,120
   1059c:	08f108a3          	sb	a5,145(sp)
			 * of printable characters, in an implementation-
			 * defined manner.''
			 *	-- ANSI X3J11
			 */
			/* NOSTRICT */
			_uquad = (uintptr_t) GET_ARG (N, ap, void_ptr_t);
   105a0:	02813783          	ld	a5,40(sp)

#ifdef _WANT_IO_C99_FORMATS
			flags &= ~GROUPING;
#endif
			/* unsigned conversions */
nosign:			sign = '\0';
   105a4:	080107a3          	sb	zero,143(sp)
			 */
			/* NOSTRICT */
			_uquad = (uintptr_t) GET_ARG (N, ap, void_ptr_t);
			base = HEX;
			xdigs = "0123456789abcdef";
			flags |= HEXPREFIX;
   105a8:	002c6693          	ori	a3,s8,2
			 * of printable characters, in an implementation-
			 * defined manner.''
			 *	-- ANSI X3J11
			 */
			/* NOSTRICT */
			_uquad = (uintptr_t) GET_ARG (N, ap, void_ptr_t);
   105ac:	00878713          	addi	a4,a5,8
   105b0:	0007b783          	ld	a5,0(a5)
			/*
			 * ``... diouXx conversions ... if a precision is
			 * specified, the 0 flag will be ignored.''
			 *	-- ANSI X3J11
			 */
number:			if ((dprec = prec) >= 0)
   105b4:	180444e3          	bltz	s0,10f3c <_vfprintf_r+0xbc0>
   105b8:	f7fc7c13          	andi	s8,s8,-129
			 * of printable characters, in an implementation-
			 * defined manner.''
			 *	-- ANSI X3J11
			 */
			/* NOSTRICT */
			_uquad = (uintptr_t) GET_ARG (N, ap, void_ptr_t);
   105bc:	02e13423          	sd	a4,40(sp)
			 * ``... diouXx conversions ... if a precision is
			 * specified, the 0 flag will be ignored.''
			 *	-- ANSI X3J11
			 */
number:			if ((dprec = prec) >= 0)
				flags &= ~ZEROPAD;
   105c0:	002c6c13          	ori	s8,s8,2
			 * ``The result of converting a zero value with an
			 * explicit precision of zero is no characters.''
			 *	-- ANSI X3J11
			 */
			cp = buf + BUF;
			if (_uquad != 0 || prec != 0) {
   105c4:	120796e3          	bnez	a5,10ef0 <_vfprintf_r+0xb74>
			 *	-- ANSI X3J11
			 */
			/* NOSTRICT */
			_uquad = (uintptr_t) GET_ARG (N, ap, void_ptr_t);
			base = HEX;
			xdigs = "0123456789abcdef";
   105c8:	000197b7          	lui	a5,0x19
   105cc:	24078793          	addi	a5,a5,576 # 19240 <zeroes.4137+0x50>
   105d0:	02f13c23          	sd	a5,56(sp)
			flags |= HEXPREFIX;
			ox[0] = '0';
			ox[1] = ch = 'x';
   105d4:	07800d13          	li	s10,120
			 * ``The result of converting a zero value with an
			 * explicit precision of zero is no characters.''
			 *	-- ANSI X3J11
			 */
			cp = buf + BUF;
			if (_uquad != 0 || prec != 0) {
   105d8:	00000613          	li	a2,0
   105dc:	7e040463          	beqz	s0,10dc4 <_vfprintf_r+0xa48>
   105e0:	00000793          	li	a5,0
   105e4:	000b0913          	mv	s2,s6
					} while (_uquad != 0);
					break;

				case HEX:
					do {
						*--cp = xdigs[_uquad & 15];
   105e8:	03813683          	ld	a3,56(sp)
   105ec:	00f7f713          	andi	a4,a5,15
   105f0:	fff90913          	addi	s2,s2,-1
   105f4:	00e68733          	add	a4,a3,a4
   105f8:	00074703          	lbu	a4,0(a4) # ffffffffffffe000 <_gp+0xfffffffffffe2530>
						_uquad >>= 4;
   105fc:	0047d793          	srli	a5,a5,0x4
					} while (_uquad != 0);
					break;

				case HEX:
					do {
						*--cp = xdigs[_uquad & 15];
   10600:	00e90023          	sb	a4,0(s2)
						_uquad >>= 4;
					} while (_uquad);
   10604:	fe0792e3          	bnez	a5,105e8 <_vfprintf_r+0x26c>
   10608:	412b07b3          	sub	a5,s6,s2
   1060c:	02f12023          	sw	a5,32(sp)
   10610:	1680006f          	j	10778 <_vfprintf_r+0x3fc>
	_newlib_flockfile_start (fp);

	ORIENT(fp, -1);

	/* sorry, fprintf(read_only_file, "") returns EOF, not 0 */
	if (cantwrite (data, fp)) {
   10614:	000a0593          	mv	a1,s4
   10618:	000b8513          	mv	a0,s7
   1061c:	2bd010ef          	jal	120d8 <__swsetup_r>
   10620:	00050463          	beqz	a0,10628 <_vfprintf_r+0x2ac>
   10624:	3940106f          	j	119b8 <_vfprintf_r+0x163c>
   10628:	010a5783          	lhu	a5,16(s4)
		return (EOF);
	}

#ifdef _UNBUF_STREAM_OPT
	/* optimise fprintf(stderr) (and other unbuffered Unix files) */
	if ((fp->_flags & (__SNBF|__SWR|__SRW)) == (__SNBF|__SWR) &&
   1062c:	00a00713          	li	a4,10
   10630:	01a7f793          	andi	a5,a5,26
   10634:	e0e79ce3          	bne	a5,a4,1044c <_vfprintf_r+0xd0>
   10638:	012a1783          	lh	a5,18(s4)
   1063c:	e007c8e3          	bltz	a5,1044c <_vfprintf_r+0xd0>
	    fp->_file >= 0) {
		_newlib_flockfile_exit (fp);
		return (__sbprintf (data, fp, fmt0, ap));
   10640:	02813683          	ld	a3,40(sp)
   10644:	00098613          	mv	a2,s3
   10648:	000a0593          	mv	a1,s4
   1064c:	000b8513          	mv	a0,s7
   10650:	1c9010ef          	jal	12018 <__sbprintf>
   10654:	04c0006f          	j	106a0 <_vfprintf_r+0x324>
#else
                while (*fmt != '\0' && *fmt != '%')
                    fmt += 1;
#endif
		if ((m = fmt - cp) != 0) {
			PRINT (cp, m);
   10658:	0b010613          	addi	a2,sp,176
   1065c:	000a0593          	mv	a1,s4
   10660:	000b8513          	mv	a0,s7
   10664:	73d050ef          	jal	165a0 <__sprint_r>
   10668:	02051263          	bnez	a0,1068c <_vfprintf_r+0x310>
   1066c:	000b0893          	mv	a7,s6
   10670:	e8dff06f          	j	104fc <_vfprintf_r+0x180>
			_free_r (data, malloc_buf);
			malloc_buf = NULL;
		}
	}
done:
	FLUSH ();
   10674:	0c013783          	ld	a5,192(sp)
   10678:	00078a63          	beqz	a5,1068c <_vfprintf_r+0x310>
   1067c:	0b010613          	addi	a2,sp,176
   10680:	000a0593          	mv	a1,s4
   10684:	000b8513          	mv	a0,s7
   10688:	719050ef          	jal	165a0 <__sprint_r>
	if (malloc_buf != NULL)
		_free_r (data, malloc_buf);
#ifndef STRING_ONLY
	_newlib_flockfile_end (fp);
#endif
	return (__sferror (fp) ? EOF : ret);
   1068c:	010a5783          	lhu	a5,16(s4)
   10690:	0407f793          	andi	a5,a5,64
   10694:	00078463          	beqz	a5,1069c <_vfprintf_r+0x320>
   10698:	3200106f          	j	119b8 <_vfprintf_r+0x163c>
   1069c:	01c12503          	lw	a0,28(sp)
	/* NOTREACHED */
}
   106a0:	1e813083          	ld	ra,488(sp)
   106a4:	1e013403          	ld	s0,480(sp)
   106a8:	1d813483          	ld	s1,472(sp)
   106ac:	1d013903          	ld	s2,464(sp)
   106b0:	1c813983          	ld	s3,456(sp)
   106b4:	1c013a03          	ld	s4,448(sp)
   106b8:	1b813a83          	ld	s5,440(sp)
   106bc:	1b013b03          	ld	s6,432(sp)
   106c0:	1a813b83          	ld	s7,424(sp)
   106c4:	1a013c03          	ld	s8,416(sp)
   106c8:	19813c83          	ld	s9,408(sp)
   106cc:	19013d03          	ld	s10,400(sp)
   106d0:	18813d83          	ld	s11,392(sp)
   106d4:	17813407          	fld	fs0,376(sp)
   106d8:	1f010113          	addi	sp,sp,496
   106dc:	00008067          	ret
	    (u_long)GET_ARG (N, ap, u_int))
#endif

#ifndef STRING_ONLY
	/* Initialize std streams if not dealing with sprintf family.  */
	CHECK_INIT (data, fp);
   106e0:	000b8513          	mv	a0,s7
   106e4:	700030ef          	jal	13de4 <__sinit>
   106e8:	d05ff06f          	j	103ec <_vfprintf_r+0x70>
		N = arg_index;
		is_pos_arg = 0;
#endif

rflag:		ch = *fmt++;
reswitch:	switch (ch) {
   106ec:	00100613          	li	a2,1
			/* FALLTHROUGH */
		case '-':
			flags |= LADJUST;
			goto rflag;
		case '+':
			sign = '+';
   106f0:	02b00593          	li	a1,43
   106f4:	e45ff06f          	j	10538 <_vfprintf_r+0x1bc>
   106f8:	00060463          	beqz	a2,10700 <_vfprintf_r+0x384>
   106fc:	0d90106f          	j	11fd4 <_vfprintf_r+0x1c58>
			continue;	/* no output */
		case 'O': /* extension */
			flags |= LONGINT;
			/*FALLTHROUGH*/
		case 'o':
			_uquad = UARG ();
   10700:	010c7793          	andi	a5,s8,16
   10704:	22078263          	beqz	a5,10928 <_vfprintf_r+0x5ac>
   10708:	02813783          	ld	a5,40(sp)

#ifdef _WANT_IO_C99_FORMATS
			flags &= ~GROUPING;
#endif
			/* unsigned conversions */
nosign:			sign = '\0';
   1070c:	080107a3          	sb	zero,143(sp)
			continue;	/* no output */
		case 'O': /* extension */
			flags |= LONGINT;
			/*FALLTHROUGH*/
		case 'o':
			_uquad = UARG ();
   10710:	00878713          	addi	a4,a5,8
   10714:	0007b783          	ld	a5,0(a5)
			/*
			 * ``... diouXx conversions ... if a precision is
			 * specified, the 0 flag will be ignored.''
			 *	-- ANSI X3J11
			 */
number:			if ((dprec = prec) >= 0)
   10718:	22044663          	bltz	s0,10944 <_vfprintf_r+0x5c8>
			continue;	/* no output */
		case 'O': /* extension */
			flags |= LONGINT;
			/*FALLTHROUGH*/
		case 'o':
			_uquad = UARG ();
   1071c:	02e13423          	sd	a4,40(sp)
			 * ``... diouXx conversions ... if a precision is
			 * specified, the 0 flag will be ignored.''
			 *	-- ANSI X3J11
			 */
number:			if ((dprec = prec) >= 0)
				flags &= ~ZEROPAD;
   10720:	f7fc7c13          	andi	s8,s8,-129
			 * ``The result of converting a zero value with an
			 * explicit precision of zero is no characters.''
			 *	-- ANSI X3J11
			 */
			cp = buf + BUF;
			if (_uquad != 0 || prec != 0) {
   10724:	22079663          	bnez	a5,10950 <_vfprintf_r+0x5d4>
   10728:	00000613          	li	a2,0
   1072c:	00000793          	li	a5,0
   10730:	00041463          	bnez	s0,10738 <_vfprintf_r+0x3bc>
   10734:	3680106f          	j	11a9c <_vfprintf_r+0x1720>
   10738:	000b0913          	mv	s2,s6
				 * a variable; hence this switch.
				 */
				switch (base) {
				case OCT:
					do {
						*--cp = to_char (_uquad & 7);
   1073c:	0077f713          	andi	a4,a5,7
   10740:	fff90913          	addi	s2,s2,-1
   10744:	0307071b          	addiw	a4,a4,48
   10748:	00e90023          	sb	a4,0(s2)
						_uquad >>= 3;
   1074c:	0037d793          	srli	a5,a5,0x3
					} while (_uquad);
   10750:	fe0796e3          	bnez	a5,1073c <_vfprintf_r+0x3c0>
					/* handle octal leading 0 */
					if (flags & ALT && *cp != '0')
   10754:	001c7793          	andi	a5,s8,1
   10758:	ea0788e3          	beqz	a5,10608 <_vfprintf_r+0x28c>
   1075c:	03000793          	li	a5,48
   10760:	eaf704e3          	beq	a4,a5,10608 <_vfprintf_r+0x28c>
						*--cp = '0';
   10764:	fff90713          	addi	a4,s2,-1
   10768:	40eb06b3          	sub	a3,s6,a4
   1076c:	fef90fa3          	sb	a5,-1(s2)
   10770:	02d12023          	sw	a3,32(sp)
   10774:	00070913          	mv	s2,a4
   10778:	02012783          	lw	a5,32(sp)
   1077c:	00078d93          	mv	s11,a5
   10780:	0087d463          	ble	s0,a5,10788 <_vfprintf_r+0x40c>
   10784:	00040d93          	mv	s11,s0
		dprec = 0;
		width = 0;
		prec = -1;
		sign = '\0';
#ifdef FLOATING_POINT
		lead = 0;
   10788:	01b12423          	sw	s11,8(sp)
   1078c:	04012623          	sw	zero,76(sp)
		 *
		 * Compute actual size, so we know how much to pad.
		 * size excludes decimal prec; realsz includes it.
		 */
		realsz = dprec > size ? dprec : size;
		if (sign)
   10790:	2a060263          	beqz	a2,10a34 <_vfprintf_r+0x6b8>
			realsz++;
   10794:	00812783          	lw	a5,8(sp)
   10798:	0017879b          	addiw	a5,a5,1
   1079c:	00f12423          	sw	a5,8(sp)
   107a0:	2940006f          	j	10a34 <_vfprintf_r+0x6b8>
			goto rflag;
		case '+':
			sign = '+';
			goto rflag;
		case '.':
			if ((ch = *fmt++) == '*') {
   107a4:	0009cd03          	lbu	s10,0(s3)
   107a8:	00198993          	addi	s3,s3,1
   107ac:	00ad1463          	bne	s10,a0,107b4 <_vfprintf_r+0x438>
   107b0:	75c0106f          	j	11f0c <_vfprintf_r+0x1b90>
				if (prec < 0)
					prec = -1;
				goto rflag;
			}
			n = 0;
			while (is_digit (ch)) {
   107b4:	fd0d079b          	addiw	a5,s10,-48
   107b8:	00000413          	li	s0,0
   107bc:	d8f6e2e3          	bltu	a3,a5,10540 <_vfprintf_r+0x1c4>
				n = 10 * n + to_digit (ch);
				ch = *fmt++;
   107c0:	00198993          	addi	s3,s3,1
   107c4:	fff9cd03          	lbu	s10,-1(s3)
					prec = -1;
				goto rflag;
			}
			n = 0;
			while (is_digit (ch)) {
				n = 10 * n + to_digit (ch);
   107c8:	0014181b          	slliw	a6,s0,0x1
   107cc:	0034141b          	slliw	s0,s0,0x3
   107d0:	0088043b          	addw	s0,a6,s0
   107d4:	00f4043b          	addw	s0,s0,a5
				if (prec < 0)
					prec = -1;
				goto rflag;
			}
			n = 0;
			while (is_digit (ch)) {
   107d8:	fd0d079b          	addiw	a5,s10,-48
   107dc:	fef6f2e3          	bleu	a5,a3,107c0 <_vfprintf_r+0x444>
   107e0:	d60450e3          	bgez	s0,10540 <_vfprintf_r+0x1c4>
   107e4:	fff00413          	li	s0,-1
				n = 10 * n + to_digit (ch);
				ch = *fmt++;
			}
			prec = n < 0 ? -1 : n;
			goto reswitch;
   107e8:	d59ff06f          	j	10540 <_vfprintf_r+0x1c4>
			/*
			 * ``Note that 0 is taken as a flag, not as the
			 * beginning of a field width.''
			 *	-- ANSI X3J11
			 */
			flags |= ZEROPAD;
   107ec:	080c6c13          	ori	s8,s8,128
			goto rflag;
   107f0:	d49ff06f          	j	10538 <_vfprintf_r+0x1bc>
			/*
			 * ``If the space and + flags both appear, the space
			 * flag will be ignored.''
			 *	-- ANSI X3J11
			 */
			if (!sign)
   107f4:	d40592e3          	bnez	a1,10538 <_vfprintf_r+0x1bc>
   107f8:	00100613          	li	a2,1
				sign = ' ';
   107fc:	02000593          	li	a1,32
   10800:	d39ff06f          	j	10538 <_vfprintf_r+0x1bc>
			goto rflag;
		case '#':
			flags |= ALT;
   10804:	001c6c13          	ori	s8,s8,1
			goto rflag;
   10808:	d31ff06f          	j	10538 <_vfprintf_r+0x1bc>
			goto nosign;
		case 's':
#ifdef _WANT_IO_C99_FORMATS
		case 'S':
#endif
			cp = GET_ARG (N, ap, char_ptr_t);
   1080c:	02813783          	ld	a5,40(sp)
#ifdef _GLIBC_EXTENSION
string:
#endif
			sign = '\0';
   10810:	080107a3          	sb	zero,143(sp)
			goto nosign;
		case 's':
#ifdef _WANT_IO_C99_FORMATS
		case 'S':
#endif
			cp = GET_ARG (N, ap, char_ptr_t);
   10814:	0007b903          	ld	s2,0(a5)
   10818:	00878c93          	addi	s9,a5,8
#ifndef __OPTIMIZE_SIZE__
			/* Behavior is undefined if the user passed a
			   NULL string when precision is not 0.
			   However, if we are not optimizing for size,
			   we might as well mirror glibc behavior.  */
			if (cp == NULL) {
   1081c:	00091463          	bnez	s2,10824 <_vfprintf_r+0x4a8>
   10820:	39c0106f          	j	11bbc <_vfprintf_r+0x1840>
   10824:	01113023          	sd	a7,0(sp)
				}
				cp[size] = '\0';
			}
			else
#endif /* _MB_CAPABLE */
			if (prec >= 0) {
   10828:	00045463          	bgez	s0,10830 <_vfprintf_r+0x4b4>
   1082c:	3240106f          	j	11b50 <_vfprintf_r+0x17d4>
				/*
				 * can't use strlen; can only look for the
				 * NUL in the first `prec' characters, and
				 * strlen () will go further.
				 */
				char *p = memchr (cp, 0, prec);
   10830:	00040613          	mv	a2,s0
   10834:	00000593          	li	a1,0
   10838:	00090513          	mv	a0,s2
   1083c:	564040ef          	jal	14da0 <memchr>

				if (p != NULL)
   10840:	00013883          	ld	a7,0(sp)
   10844:	00051463          	bnez	a0,1084c <_vfprintf_r+0x4d0>
   10848:	4c00106f          	j	11d08 <_vfprintf_r+0x198c>
					size = p - cp;
   1084c:	412507bb          	subw	a5,a0,s2
   10850:	02f12023          	sw	a5,32(sp)
   10854:	00078d93          	mv	s11,a5
   10858:	0007d463          	bgez	a5,10860 <_vfprintf_r+0x4e4>
   1085c:	3140106f          	j	11b70 <_vfprintf_r+0x17f4>
   10860:	08f14603          	lbu	a2,143(sp)
				else
					size = prec;
			} else
				size = strlen (cp);
   10864:	01b12423          	sw	s11,8(sp)
			goto nosign;
		case 's':
#ifdef _WANT_IO_C99_FORMATS
		case 'S':
#endif
			cp = GET_ARG (N, ap, char_ptr_t);
   10868:	03913423          	sd	s9,40(sp)
#endif
		fmt_anchor = fmt;
		fmt++;		/* skip over '%' */

		flags = 0;
		dprec = 0;
   1086c:	00000413          	li	s0,0
		width = 0;
		prec = -1;
		sign = '\0';
#ifdef FLOATING_POINT
		lead = 0;
   10870:	04012623          	sw	zero,76(sp)
   10874:	f1dff06f          	j	10790 <_vfprintf_r+0x414>
   10878:	00060463          	beqz	a2,10880 <_vfprintf_r+0x504>
   1087c:	7800106f          	j	11ffc <_vfprintf_r+0x1c80>
			break;
		case 'U': /* extension */
			flags |= LONGINT;
			/*FALLTHROUGH*/
		case 'u':
			_uquad = UARG ();
   10880:	010c7793          	andi	a5,s8,16
   10884:	0e078463          	beqz	a5,1096c <_vfprintf_r+0x5f0>
   10888:	02813783          	ld	a5,40(sp)

#ifdef _WANT_IO_C99_FORMATS
			flags &= ~GROUPING;
#endif
			/* unsigned conversions */
nosign:			sign = '\0';
   1088c:	080107a3          	sb	zero,143(sp)
			break;
		case 'U': /* extension */
			flags |= LONGINT;
			/*FALLTHROUGH*/
		case 'u':
			_uquad = UARG ();
   10890:	00878713          	addi	a4,a5,8
   10894:	0007b783          	ld	a5,0(a5)
			/*
			 * ``... diouXx conversions ... if a precision is
			 * specified, the 0 flag will be ignored.''
			 *	-- ANSI X3J11
			 */
number:			if ((dprec = prec) >= 0)
   10898:	0e044863          	bltz	s0,10988 <_vfprintf_r+0x60c>
			break;
		case 'U': /* extension */
			flags |= LONGINT;
			/*FALLTHROUGH*/
		case 'u':
			_uquad = UARG ();
   1089c:	02e13423          	sd	a4,40(sp)
			 * ``... diouXx conversions ... if a precision is
			 * specified, the 0 flag will be ignored.''
			 *	-- ANSI X3J11
			 */
number:			if ((dprec = prec) >= 0)
				flags &= ~ZEROPAD;
   108a0:	f7fc7c13          	andi	s8,s8,-129
			 * ``The result of converting a zero value with an
			 * explicit precision of zero is no characters.''
			 *	-- ANSI X3J11
			 */
			cp = buf + BUF;
			if (_uquad != 0 || prec != 0) {
   108a4:	00000613          	li	a2,0
   108a8:	50078c63          	beqz	a5,10dc0 <_vfprintf_r+0xa44>
						*--cp = '0';
					break;

				case DEC:
					/* many numbers are 1 digit */
					if (_uquad < 10) {
   108ac:	00900713          	li	a4,9
   108b0:	000b0913          	mv	s2,s6
					}
#ifdef _WANT_IO_C99_FORMATS
					ndig = 0;
#endif
					do {
					  *--cp = to_char (_uquad % 10);
   108b4:	00a00693          	li	a3,10
						*--cp = '0';
					break;

				case DEC:
					/* many numbers are 1 digit */
					if (_uquad < 10) {
   108b8:	40f770e3          	bleu	a5,a4,114b8 <_vfprintf_r+0x113c>
					}
#ifdef _WANT_IO_C99_FORMATS
					ndig = 0;
#endif
					do {
					  *--cp = to_char (_uquad % 10);
   108bc:	02d7f733          	remu	a4,a5,a3
   108c0:	fff90913          	addi	s2,s2,-1
					       next cases. */
					    if (grouping[1] != '\0')
					      grouping++;
					  }
#endif
					  _uquad /= 10;
   108c4:	02d7d7b3          	divu	a5,a5,a3
					}
#ifdef _WANT_IO_C99_FORMATS
					ndig = 0;
#endif
					do {
					  *--cp = to_char (_uquad % 10);
   108c8:	0307071b          	addiw	a4,a4,48
   108cc:	00e90023          	sb	a4,0(s2)
					    if (grouping[1] != '\0')
					      grouping++;
					  }
#endif
					  _uquad /= 10;
					} while (_uquad != 0);
   108d0:	fe0796e3          	bnez	a5,108bc <_vfprintf_r+0x540>
   108d4:	412b07b3          	sub	a5,s6,s2
   108d8:	02f12023          	sw	a5,32(sp)
   108dc:	e9dff06f          	j	10778 <_vfprintf_r+0x3fc>
		N = arg_index;
		is_pos_arg = 0;
#endif

rflag:		ch = *fmt++;
reswitch:	switch (ch) {
   108e0:	00012c23          	sw	zero,24(sp)
   108e4:	fd0d079b          	addiw	a5,s10,-48
			goto rflag;
		case '1': case '2': case '3': case '4':
		case '5': case '6': case '7': case '8': case '9':
			n = 0;
			do {
				n = 10 * n + to_digit (ch);
   108e8:	01812303          	lw	t1,24(sp)
				ch = *fmt++;
   108ec:	00198993          	addi	s3,s3,1
   108f0:	fff9cd03          	lbu	s10,-1(s3)
			goto rflag;
		case '1': case '2': case '3': case '4':
		case '5': case '6': case '7': case '8': case '9':
			n = 0;
			do {
				n = 10 * n + to_digit (ch);
   108f4:	0013181b          	slliw	a6,t1,0x1
   108f8:	00331c9b          	slliw	s9,t1,0x3
   108fc:	01980cbb          	addw	s9,a6,s9
   10900:	019787bb          	addw	a5,a5,s9
   10904:	00f12c23          	sw	a5,24(sp)
				ch = *fmt++;
			} while (is_digit (ch));
   10908:	fd0d079b          	addiw	a5,s10,-48
   1090c:	fcf6fee3          	bleu	a5,a3,108e8 <_vfprintf_r+0x56c>
   10910:	c31ff06f          	j	10540 <_vfprintf_r+0x1c4>
   10914:	00060463          	beqz	a2,1091c <_vfprintf_r+0x5a0>
   10918:	6d80106f          	j	11ff0 <_vfprintf_r+0x1c74>
#endif
			else
				*GET_ARG (N, ap, int_ptr_t) = ret;
			continue;	/* no output */
		case 'O': /* extension */
			flags |= LONGINT;
   1091c:	010c6c13          	ori	s8,s8,16
			/*FALLTHROUGH*/
		case 'o':
			_uquad = UARG ();
   10920:	010c7793          	andi	a5,s8,16
   10924:	de0792e3          	bnez	a5,10708 <_vfprintf_r+0x38c>
   10928:	040c7793          	andi	a5,s8,64

#ifdef _WANT_IO_C99_FORMATS
			flags &= ~GROUPING;
#endif
			/* unsigned conversions */
nosign:			sign = '\0';
   1092c:	080107a3          	sb	zero,143(sp)
			continue;	/* no output */
		case 'O': /* extension */
			flags |= LONGINT;
			/*FALLTHROUGH*/
		case 'o':
			_uquad = UARG ();
   10930:	580780e3          	beqz	a5,116b0 <_vfprintf_r+0x1334>
   10934:	02813783          	ld	a5,40(sp)
   10938:	00878713          	addi	a4,a5,8
   1093c:	0007d783          	lhu	a5,0(a5)
			/*
			 * ``... diouXx conversions ... if a precision is
			 * specified, the 0 flag will be ignored.''
			 *	-- ANSI X3J11
			 */
number:			if ((dprec = prec) >= 0)
   10940:	dc045ee3          	bgez	s0,1071c <_vfprintf_r+0x3a0>
			 * ``The result of converting a zero value with an
			 * explicit precision of zero is no characters.''
			 *	-- ANSI X3J11
			 */
			cp = buf + BUF;
			if (_uquad != 0 || prec != 0) {
   10944:	02e13423          	sd	a4,40(sp)
   10948:	00000613          	li	a2,0
   1094c:	60078a63          	beqz	a5,10f60 <_vfprintf_r+0xbe4>
   10950:	00000613          	li	a2,0
   10954:	de5ff06f          	j	10738 <_vfprintf_r+0x3bc>
   10958:	00060463          	beqz	a2,10960 <_vfprintf_r+0x5e4>
   1095c:	6880106f          	j	11fe4 <_vfprintf_r+0x1c68>
			} else
				size = strlen (cp);

			break;
		case 'U': /* extension */
			flags |= LONGINT;
   10960:	010c6c13          	ori	s8,s8,16
			/*FALLTHROUGH*/
		case 'u':
			_uquad = UARG ();
   10964:	010c7793          	andi	a5,s8,16
   10968:	f20790e3          	bnez	a5,10888 <_vfprintf_r+0x50c>
   1096c:	040c7793          	andi	a5,s8,64

#ifdef _WANT_IO_C99_FORMATS
			flags &= ~GROUPING;
#endif
			/* unsigned conversions */
nosign:			sign = '\0';
   10970:	080107a3          	sb	zero,143(sp)
			break;
		case 'U': /* extension */
			flags |= LONGINT;
			/*FALLTHROUGH*/
		case 'u':
			_uquad = UARG ();
   10974:	500780e3          	beqz	a5,11674 <_vfprintf_r+0x12f8>
   10978:	02813783          	ld	a5,40(sp)
   1097c:	00878713          	addi	a4,a5,8
   10980:	0007d783          	lhu	a5,0(a5)
			/*
			 * ``... diouXx conversions ... if a precision is
			 * specified, the 0 flag will be ignored.''
			 *	-- ANSI X3J11
			 */
number:			if ((dprec = prec) >= 0)
   10984:	f0045ce3          	bgez	s0,1089c <_vfprintf_r+0x520>
			break;
		case 'U': /* extension */
			flags |= LONGINT;
			/*FALLTHROUGH*/
		case 'u':
			_uquad = UARG ();
   10988:	02e13423          	sd	a4,40(sp)
			/*
			 * ``... diouXx conversions ... if a precision is
			 * specified, the 0 flag will be ignored.''
			 *	-- ANSI X3J11
			 */
number:			if ((dprec = prec) >= 0)
   1098c:	00000613          	li	a2,0
			 * ``The result of converting a zero value with an
			 * explicit precision of zero is no characters.''
			 *	-- ANSI X3J11
			 */
			cp = buf + BUF;
			if (_uquad != 0 || prec != 0) {
   10990:	f0079ee3          	bnez	a5,108ac <_vfprintf_r+0x530>
   10994:	00100793          	li	a5,1
   10998:	5c80006f          	j	10f60 <_vfprintf_r+0xbe4>
   1099c:	00060463          	beqz	a2,109a4 <_vfprintf_r+0x628>
   109a0:	63c0106f          	j	11fdc <_vfprintf_r+0x1c60>
		case 'u':
			_uquad = UARG ();
			base = DEC;
			goto nosign;
		case 'X':
			xdigs = "0123456789ABCDEF";
   109a4:	000197b7          	lui	a5,0x19
   109a8:	22878793          	addi	a5,a5,552 # 19228 <zeroes.4137+0x38>
   109ac:	02f13c23          	sd	a5,56(sp)
			goto hex;
		case 'x':
			xdigs = "0123456789abcdef";
hex:			_uquad = UARG ();
   109b0:	010c7793          	andi	a5,s8,16
   109b4:	4c078263          	beqz	a5,10e78 <_vfprintf_r+0xafc>
   109b8:	02813703          	ld	a4,40(sp)
   109bc:	00073783          	ld	a5,0(a4)
   109c0:	00870713          	addi	a4,a4,8
   109c4:	02e13423          	sd	a4,40(sp)
			base = HEX;
			/* leading 0x/X only if non-zero */
			if (flags & ALT && _uquad != 0) {
   109c8:	001c7713          	andi	a4,s8,1
   109cc:	120706e3          	beqz	a4,112f8 <_vfprintf_r+0xf7c>
   109d0:	6a078ee3          	beqz	a5,1188c <_vfprintf_r+0x1510>
				ox[0] = '0';
   109d4:	03000713          	li	a4,48
   109d8:	08e10823          	sb	a4,144(sp)
				ox[1] = ch;
   109dc:	09a108a3          	sb	s10,145(sp)

#ifdef _WANT_IO_C99_FORMATS
			flags &= ~GROUPING;
#endif
			/* unsigned conversions */
nosign:			sign = '\0';
   109e0:	080107a3          	sb	zero,143(sp)
			base = HEX;
			/* leading 0x/X only if non-zero */
			if (flags & ALT && _uquad != 0) {
				ox[0] = '0';
				ox[1] = ch;
				flags |= HEXPREFIX;
   109e4:	002c6713          	ori	a4,s8,2
			/*
			 * ``... diouXx conversions ... if a precision is
			 * specified, the 0 flag will be ignored.''
			 *	-- ANSI X3J11
			 */
number:			if ((dprec = prec) >= 0)
   109e8:	00045463          	bgez	s0,109f0 <_vfprintf_r+0x674>
   109ec:	2140106f          	j	11c00 <_vfprintf_r+0x1884>
   109f0:	f7fc7c13          	andi	s8,s8,-129
				flags &= ~ZEROPAD;
   109f4:	002c6c13          	ori	s8,s8,2
   109f8:	00000613          	li	a2,0
   109fc:	be9ff06f          	j	105e4 <_vfprintf_r+0x268>
				}
			}
			else
#endif /* _MB_CAPABLE */
			{
				*cp = GET_ARG (N, ap, int);
   10a00:	02813703          	ld	a4,40(sp)
				size = 1;
			}
			sign = '\0';
			break;
   10a04:	00100693          	li	a3,1
   10a08:	00d12423          	sw	a3,8(sp)
				}
			}
			else
#endif /* _MB_CAPABLE */
			{
				*cp = GET_ARG (N, ap, int);
   10a0c:	00072783          	lw	a5,0(a4)
				size = 1;
			}
			sign = '\0';
   10a10:	080107a3          	sb	zero,143(sp)
			break;
   10a14:	00000613          	li	a2,0
				}
			}
			else
#endif /* _MB_CAPABLE */
			{
				*cp = GET_ARG (N, ap, int);
   10a18:	0cf10423          	sb	a5,200(sp)
   10a1c:	00870793          	addi	a5,a4,8
   10a20:	02f13423          	sd	a5,40(sp)
				size = 1;
   10a24:	02d12023          	sw	a3,32(sp)
#endif
		fmt_anchor = fmt;
		fmt++;		/* skip over '%' */

		flags = 0;
		dprec = 0;
   10a28:	00000413          	li	s0,0
		width = 0;
		prec = -1;
		sign = '\0';
#ifdef FLOATING_POINT
		lead = 0;
   10a2c:	04012623          	sw	zero,76(sp)
		    flags |= QUADINT;
		  goto rflag;
		case 'C':
#endif /* _WANT_IO_C99_FORMATS */
		case 'c':
			cp = buf;
   10a30:	0c810913          	addi	s2,sp,200
		 * size excludes decimal prec; realsz includes it.
		 */
		realsz = dprec > size ? dprec : size;
		if (sign)
			realsz++;
		if (flags & HEXPREFIX)
   10a34:	002c7793          	andi	a5,s8,2
   10a38:	04f12023          	sw	a5,64(sp)
   10a3c:	00078863          	beqz	a5,10a4c <_vfprintf_r+0x6d0>
			realsz+= 2;
   10a40:	00812783          	lw	a5,8(sp)
   10a44:	0027879b          	addiw	a5,a5,2
   10a48:	00f12423          	sw	a5,8(sp)

		/* right-adjusting blank padding */
		if ((flags & (LADJUST|ZEROPAD)) == 0)
   10a4c:	084c7793          	andi	a5,s8,132
   10a50:	04f12423          	sw	a5,72(sp)
   10a54:	52079263          	bnez	a5,10f78 <_vfprintf_r+0xbfc>
			PAD (width - realsz, blanks);
   10a58:	01812783          	lw	a5,24(sp)
   10a5c:	00812703          	lw	a4,8(sp)
   10a60:	40e78cbb          	subw	s9,a5,a4
   10a64:	51905a63          	blez	s9,10f78 <_vfprintf_r+0xbfc>
   10a68:	01000793          	li	a5,16
   10a6c:	0197c463          	blt	a5,s9,10a74 <_vfprintf_r+0x6f8>
   10a70:	1080106f          	j	11b78 <_vfprintf_r+0x17fc>
   10a74:	01000813          	li	a6,16
   10a78:	0c013783          	ld	a5,192(sp)
   10a7c:	0b812703          	lw	a4,184(sp)
   10a80:	05513823          	sd	s5,80(sp)
   10a84:	00700313          	li	t1,7
   10a88:	00080d93          	mv	s11,a6
   10a8c:	00c0006f          	j	10a98 <_vfprintf_r+0x71c>
   10a90:	ff0c8c9b          	addiw	s9,s9,-16
   10a94:	059dde63          	ble	s9,s11,10af0 <_vfprintf_r+0x774>
   10a98:	01078793          	addi	a5,a5,16
   10a9c:	0017071b          	addiw	a4,a4,1
   10aa0:	0158b023          	sd	s5,0(a7)
   10aa4:	0108b423          	sd	a6,8(a7)
   10aa8:	0cf13023          	sd	a5,192(sp)
   10aac:	0ae12c23          	sw	a4,184(sp)
   10ab0:	01088893          	addi	a7,a7,16
   10ab4:	fce35ee3          	ble	a4,t1,10a90 <_vfprintf_r+0x714>
   10ab8:	0b010613          	addi	a2,sp,176
   10abc:	000a0593          	mv	a1,s4
   10ac0:	000b8513          	mv	a0,s7
   10ac4:	00613823          	sd	t1,16(sp)
   10ac8:	01013023          	sd	a6,0(sp)
   10acc:	2d5050ef          	jal	165a0 <__sprint_r>
   10ad0:	ba051ee3          	bnez	a0,1068c <_vfprintf_r+0x310>
   10ad4:	ff0c8c9b          	addiw	s9,s9,-16
   10ad8:	0c013783          	ld	a5,192(sp)
   10adc:	0b812703          	lw	a4,184(sp)
   10ae0:	000b0893          	mv	a7,s6
   10ae4:	01013303          	ld	t1,16(sp)
   10ae8:	00013803          	ld	a6,0(sp)
   10aec:	fb9dc6e3          	blt	s11,s9,10a98 <_vfprintf_r+0x71c>
   10af0:	05013603          	ld	a2,80(sp)
   10af4:	00fc87b3          	add	a5,s9,a5
   10af8:	0017071b          	addiw	a4,a4,1
   10afc:	00c8b023          	sd	a2,0(a7)
   10b00:	0198b423          	sd	s9,8(a7)
   10b04:	0cf13023          	sd	a5,192(sp)
   10b08:	0ae12c23          	sw	a4,184(sp)
   10b0c:	00700693          	li	a3,7
   10b10:	0ce6cae3          	blt	a3,a4,113e4 <_vfprintf_r+0x1068>
   10b14:	08f14603          	lbu	a2,143(sp)
   10b18:	01088893          	addi	a7,a7,16

		/* prefix */
		if (sign)
   10b1c:	02060a63          	beqz	a2,10b50 <_vfprintf_r+0x7d4>
			PRINT (&sign, 1);
   10b20:	0b812703          	lw	a4,184(sp)
   10b24:	08f10693          	addi	a3,sp,143
   10b28:	00d8b023          	sd	a3,0(a7)
   10b2c:	00178793          	addi	a5,a5,1
   10b30:	00100693          	li	a3,1
   10b34:	0017071b          	addiw	a4,a4,1
   10b38:	00d8b423          	sd	a3,8(a7)
   10b3c:	0cf13023          	sd	a5,192(sp)
   10b40:	0ae12c23          	sw	a4,184(sp)
   10b44:	00700693          	li	a3,7
   10b48:	01088893          	addi	a7,a7,16
   10b4c:	76e6c663          	blt	a3,a4,112b8 <_vfprintf_r+0xf3c>
		if (flags & HEXPREFIX)
   10b50:	04012703          	lw	a4,64(sp)
   10b54:	02070a63          	beqz	a4,10b88 <_vfprintf_r+0x80c>
			PRINT (ox, 2);
   10b58:	0b812703          	lw	a4,184(sp)
   10b5c:	09010693          	addi	a3,sp,144
   10b60:	00d8b023          	sd	a3,0(a7)
   10b64:	00278793          	addi	a5,a5,2
   10b68:	00200693          	li	a3,2
   10b6c:	0017071b          	addiw	a4,a4,1
   10b70:	00d8b423          	sd	a3,8(a7)
   10b74:	0cf13023          	sd	a5,192(sp)
   10b78:	0ae12c23          	sw	a4,184(sp)
   10b7c:	00700693          	li	a3,7
   10b80:	01088893          	addi	a7,a7,16
   10b84:	74e6ca63          	blt	a3,a4,112d8 <_vfprintf_r+0xf5c>

		/* right-adjusting zero padding */
		if ((flags & (LADJUST|ZEROPAD)) == ZEROPAD)
   10b88:	04812683          	lw	a3,72(sp)
   10b8c:	08000713          	li	a4,128
   10b90:	5ee68663          	beq	a3,a4,1117c <_vfprintf_r+0xe00>
			PAD (width - realsz, zeroes);

		/* leading zeroes from decimal precision */
		PAD (dprec - size, zeroes);
   10b94:	02012703          	lw	a4,32(sp)
   10b98:	40e4043b          	subw	s0,s0,a4
   10b9c:	0c805063          	blez	s0,10c5c <_vfprintf_r+0x8e0>
   10ba0:	01000713          	li	a4,16
   10ba4:	4e875ce3          	ble	s0,a4,1189c <_vfprintf_r+0x1520>
   10ba8:	01000c93          	li	s9,16
   10bac:	0b812703          	lw	a4,184(sp)
   10bb0:	00913823          	sd	s1,16(sp)
   10bb4:	00700813          	li	a6,7
   10bb8:	000c8d93          	mv	s11,s9
   10bbc:	00c0006f          	j	10bc8 <_vfprintf_r+0x84c>
   10bc0:	ff04041b          	addiw	s0,s0,-16
   10bc4:	048dda63          	ble	s0,s11,10c18 <_vfprintf_r+0x89c>
   10bc8:	01078793          	addi	a5,a5,16
   10bcc:	0017071b          	addiw	a4,a4,1
   10bd0:	0098b023          	sd	s1,0(a7)
   10bd4:	0198b423          	sd	s9,8(a7)
   10bd8:	0cf13023          	sd	a5,192(sp)
   10bdc:	0ae12c23          	sw	a4,184(sp)
   10be0:	01088893          	addi	a7,a7,16
   10be4:	fce85ee3          	ble	a4,a6,10bc0 <_vfprintf_r+0x844>
   10be8:	0b010613          	addi	a2,sp,176
   10bec:	000a0593          	mv	a1,s4
   10bf0:	000b8513          	mv	a0,s7
   10bf4:	01013023          	sd	a6,0(sp)
   10bf8:	1a9050ef          	jal	165a0 <__sprint_r>
   10bfc:	a80518e3          	bnez	a0,1068c <_vfprintf_r+0x310>
   10c00:	ff04041b          	addiw	s0,s0,-16
   10c04:	0c013783          	ld	a5,192(sp)
   10c08:	0b812703          	lw	a4,184(sp)
   10c0c:	000b0893          	mv	a7,s6
   10c10:	00013803          	ld	a6,0(sp)
   10c14:	fa8dcae3          	blt	s11,s0,10bc8 <_vfprintf_r+0x84c>
   10c18:	01013683          	ld	a3,16(sp)
   10c1c:	008787b3          	add	a5,a5,s0
   10c20:	0017071b          	addiw	a4,a4,1
   10c24:	00d8b023          	sd	a3,0(a7)
   10c28:	0088b423          	sd	s0,8(a7)
   10c2c:	0cf13023          	sd	a5,192(sp)
   10c30:	0ae12c23          	sw	a4,184(sp)
   10c34:	00700693          	li	a3,7
   10c38:	01088893          	addi	a7,a7,16
   10c3c:	02e6d063          	ble	a4,a3,10c5c <_vfprintf_r+0x8e0>
   10c40:	0b010613          	addi	a2,sp,176
   10c44:	000a0593          	mv	a1,s4
   10c48:	000b8513          	mv	a0,s7
   10c4c:	155050ef          	jal	165a0 <__sprint_r>
   10c50:	a2051ee3          	bnez	a0,1068c <_vfprintf_r+0x310>
   10c54:	0c013783          	ld	a5,192(sp)
   10c58:	000b0893          	mv	a7,s6

		/* the string or number proper */
#ifdef FLOATING_POINT
		if ((flags & FPT) == 0) {
   10c5c:	100c7713          	andi	a4,s8,256
   10c60:	40071663          	bnez	a4,1106c <_vfprintf_r+0xcf0>
			PRINT (cp, size);
   10c64:	02012703          	lw	a4,32(sp)
   10c68:	0b812683          	lw	a3,184(sp)
   10c6c:	0128b023          	sd	s2,0(a7)
   10c70:	00e787b3          	add	a5,a5,a4
   10c74:	0016869b          	addiw	a3,a3,1
   10c78:	00e8b423          	sd	a4,8(a7)
   10c7c:	0cf13023          	sd	a5,192(sp)
   10c80:	0ad12c23          	sw	a3,184(sp)
   10c84:	00700713          	li	a4,7
   10c88:	3cd74263          	blt	a4,a3,1104c <_vfprintf_r+0xcd0>
					} else	/* 0.[0..] */
						/* __dtoa irregularity */
						PAD (ndig - 1, zeroes);
				} else	/* XeYYY */
					PRINT (cp, 1);
				PRINT (expstr, expsize);
   10c8c:	01088893          	addi	a7,a7,16
		}
#else /* !FLOATING_POINT */
		PRINT (cp, size);
#endif
		/* left-adjusting padding (always blank) */
		if (flags & LADJUST)
   10c90:	004c7c13          	andi	s8,s8,4
   10c94:	0c0c0063          	beqz	s8,10d54 <_vfprintf_r+0x9d8>
			PAD (width - realsz, blanks);
   10c98:	01812703          	lw	a4,24(sp)
   10c9c:	00812683          	lw	a3,8(sp)
   10ca0:	40d7043b          	subw	s0,a4,a3
   10ca4:	0a805863          	blez	s0,10d54 <_vfprintf_r+0x9d8>
   10ca8:	01000713          	li	a4,16
   10cac:	748754e3          	ble	s0,a4,11bf4 <_vfprintf_r+0x1878>
   10cb0:	01000913          	li	s2,16
   10cb4:	0b812703          	lw	a4,184(sp)
   10cb8:	05513823          	sd	s5,80(sp)
   10cbc:	00700c13          	li	s8,7
   10cc0:	00090d13          	mv	s10,s2
   10cc4:	00c0006f          	j	10cd0 <_vfprintf_r+0x954>
   10cc8:	ff04041b          	addiw	s0,s0,-16
   10ccc:	048d5663          	ble	s0,s10,10d18 <_vfprintf_r+0x99c>
   10cd0:	01078793          	addi	a5,a5,16
   10cd4:	0017071b          	addiw	a4,a4,1
   10cd8:	0158b023          	sd	s5,0(a7)
   10cdc:	0128b423          	sd	s2,8(a7)
   10ce0:	0cf13023          	sd	a5,192(sp)
   10ce4:	0ae12c23          	sw	a4,184(sp)
   10ce8:	01088893          	addi	a7,a7,16
   10cec:	fcec5ee3          	ble	a4,s8,10cc8 <_vfprintf_r+0x94c>
   10cf0:	0b010613          	addi	a2,sp,176
   10cf4:	000a0593          	mv	a1,s4
   10cf8:	000b8513          	mv	a0,s7
   10cfc:	0a5050ef          	jal	165a0 <__sprint_r>
   10d00:	980516e3          	bnez	a0,1068c <_vfprintf_r+0x310>
   10d04:	ff04041b          	addiw	s0,s0,-16
   10d08:	0c013783          	ld	a5,192(sp)
   10d0c:	0b812703          	lw	a4,184(sp)
   10d10:	000b0893          	mv	a7,s6
   10d14:	fa8d4ee3          	blt	s10,s0,10cd0 <_vfprintf_r+0x954>
   10d18:	05013683          	ld	a3,80(sp)
   10d1c:	008787b3          	add	a5,a5,s0
   10d20:	0017071b          	addiw	a4,a4,1
   10d24:	00d8b023          	sd	a3,0(a7)
   10d28:	0088b423          	sd	s0,8(a7)
   10d2c:	0cf13023          	sd	a5,192(sp)
   10d30:	0ae12c23          	sw	a4,184(sp)
   10d34:	00700693          	li	a3,7
   10d38:	00e6de63          	ble	a4,a3,10d54 <_vfprintf_r+0x9d8>
   10d3c:	0b010613          	addi	a2,sp,176
   10d40:	000a0593          	mv	a1,s4
   10d44:	000b8513          	mv	a0,s7
   10d48:	059050ef          	jal	165a0 <__sprint_r>
   10d4c:	940510e3          	bnez	a0,1068c <_vfprintf_r+0x310>
   10d50:	0c013783          	ld	a5,192(sp)

		/* finally, adjust ret */
		ret += width > realsz ? width : realsz;
   10d54:	01812c83          	lw	s9,24(sp)
   10d58:	00812703          	lw	a4,8(sp)
   10d5c:	00ecd463          	ble	a4,s9,10d64 <_vfprintf_r+0x9e8>
   10d60:	00070c93          	mv	s9,a4
   10d64:	01c12703          	lw	a4,28(sp)
   10d68:	0197073b          	addw	a4,a4,s9
   10d6c:	00e12e23          	sw	a4,28(sp)

		FLUSH ();	/* copy out the I/O vectors */
   10d70:	52079863          	bnez	a5,112a0 <_vfprintf_r+0xf24>
                    else if (wc == '%')
                        break;
                    fmt += n;
		}
#else
                while (*fmt != '\0' && *fmt != '%')
   10d74:	0009c783          	lbu	a5,0(s3)
			PAD (width - realsz, blanks);

		/* finally, adjust ret */
		ret += width > realsz ? width : realsz;

		FLUSH ();	/* copy out the I/O vectors */
   10d78:	0a012c23          	sw	zero,184(sp)
   10d7c:	000b0893          	mv	a7,s6
                    else if (wc == '%')
                        break;
                    fmt += n;
		}
#else
                while (*fmt != '\0' && *fmt != '%')
   10d80:	f2079263          	bnez	a5,104a4 <_vfprintf_r+0x128>
   10d84:	00098413          	mv	s0,s3
   10d88:	f80ff06f          	j	10508 <_vfprintf_r+0x18c>
   10d8c:	00060463          	beqz	a2,10d94 <_vfprintf_r+0xa18>
   10d90:	22c0106f          	j	11fbc <_vfprintf_r+0x1c40>
		case 'D':  /* extension */
			flags |= LONGINT;
			/*FALLTHROUGH*/
		case 'd':
		case 'i':
			_uquad = SARG ();
   10d94:	010c7793          	andi	a5,s8,16
   10d98:	12078e63          	beqz	a5,10ed4 <_vfprintf_r+0xb58>
   10d9c:	02813703          	ld	a4,40(sp)
   10da0:	00073783          	ld	a5,0(a4)
   10da4:	00870713          	addi	a4,a4,8
   10da8:	02e13423          	sd	a4,40(sp)
#ifndef _NO_LONGLONG
			if ((quad_t)_uquad < 0)
#else
			if ((long) _uquad < 0)
   10dac:	1407c0e3          	bltz	a5,116ec <_vfprintf_r+0x1370>
   10db0:	08f14603          	lbu	a2,143(sp)
			/*
			 * ``... diouXx conversions ... if a precision is
			 * specified, the 0 flag will be ignored.''
			 *	-- ANSI X3J11
			 */
number:			if ((dprec = prec) >= 0)
   10db4:	bc044ee3          	bltz	s0,10990 <_vfprintf_r+0x614>
				flags &= ~ZEROPAD;
   10db8:	f7fc7c13          	andi	s8,s8,-129
			 * ``The result of converting a zero value with an
			 * explicit precision of zero is no characters.''
			 *	-- ANSI X3J11
			 */
			cp = buf + BUF;
			if (_uquad != 0 || prec != 0) {
   10dbc:	ae0798e3          	bnez	a5,108ac <_vfprintf_r+0x530>
   10dc0:	6e041a63          	bnez	s0,114b4 <_vfprintf_r+0x1138>
   10dc4:	00000413          	li	s0,0
   10dc8:	02012023          	sw	zero,32(sp)
			/*
			 * ``The result of converting a zero value with an
			 * explicit precision of zero is no characters.''
			 *	-- ANSI X3J11
			 */
			cp = buf + BUF;
   10dcc:	000b0913          	mv	s2,s6
   10dd0:	9a9ff06f          	j	10778 <_vfprintf_r+0x3fc>
			if (*fmt == 'h') {
				fmt++;
				flags |= CHARINT;
			} else
#endif
				flags |= SHORTINT;
   10dd4:	040c6c13          	ori	s8,s8,64
			goto rflag;
   10dd8:	f60ff06f          	j	10538 <_vfprintf_r+0x1bc>
   10ddc:	00060463          	beqz	a2,10de4 <_vfprintf_r+0xa68>
   10de0:	1d40106f          	j	11fb4 <_vfprintf_r+0x1c38>
		case 'G':
# ifdef _NO_LONGDBL
			if (flags & LONGDBL) {
				_fpvalue = (double) GET_ARG (N, ap, _LONG_DOUBLE);
			} else {
				_fpvalue = GET_ARG (N, ap, double);
   10de4:	02813783          	ld	a5,40(sp)

			   If the output is infinite or NaN, leading
			   zeros are not permitted.  Otherwise, scanf
			   could not read what printf wrote.
			 */
			if (isinf (_fpvalue)) {
   10de8:	00100913          	li	s2,1
		case 'G':
# ifdef _NO_LONGDBL
			if (flags & LONGDBL) {
				_fpvalue = (double) GET_ARG (N, ap, _LONG_DOUBLE);
			} else {
				_fpvalue = GET_ARG (N, ap, double);
   10dec:	0007b787          	fld	fa5,0(a5)
   10df0:	00878793          	addi	a5,a5,8
   10df4:	01113023          	sd	a7,0(sp)
   10df8:	04f13c27          	fsd	fa5,88(sp)

			   If the output is infinite or NaN, leading
			   zeros are not permitted.  Otherwise, scanf
			   could not read what printf wrote.
			 */
			if (isinf (_fpvalue)) {
   10dfc:	05813c83          	ld	s9,88(sp)
		case 'G':
# ifdef _NO_LONGDBL
			if (flags & LONGDBL) {
				_fpvalue = (double) GET_ARG (N, ap, _LONG_DOUBLE);
			} else {
				_fpvalue = GET_ARG (N, ap, double);
   10e00:	02f13423          	sd	a5,40(sp)

			   If the output is infinite or NaN, leading
			   zeros are not permitted.  Otherwise, scanf
			   could not read what printf wrote.
			 */
			if (isinf (_fpvalue)) {
   10e04:	f20c8553          	fmv.d.x	fa0,s9
   10e08:	2e8050ef          	jal	160f0 <__fpclassifyd>
   10e0c:	00013883          	ld	a7,0(sp)
   10e10:	0f251ce3          	bne	a0,s2,11708 <_vfprintf_r+0x138c>
				if (_fpvalue < 0)
   10e14:	f20007d3          	fmv.d.x	fa5,zero
   10e18:	f20c8753          	fmv.d.x	fa4,s9
   10e1c:	a2f717d3          	flt.d	a5,fa4,fa5
   10e20:	600792e3          	bnez	a5,11c24 <_vfprintf_r+0x18a8>
   10e24:	08f14603          	lbu	a2,143(sp)
					sign = '-';
				if (ch <= 'G') /* 'A', 'E', 'F', or 'G' */
   10e28:	04700793          	li	a5,71
   10e2c:	3da7d8e3          	ble	s10,a5,119fc <_vfprintf_r+0x1680>
					cp = "INF";
				else
					cp = "inf";
   10e30:	00019937          	lui	s2,0x19
   10e34:	21090913          	addi	s2,s2,528 # 19210 <zeroes.4137+0x20>
				size = 3;
				flags &= ~ZEROPAD;
				break;
   10e38:	00300793          	li	a5,3
   10e3c:	00f12423          	sw	a5,8(sp)
				if (ch <= 'G') /* 'A', 'E', 'F', or 'G' */
					cp = "INF";
				else
					cp = "inf";
				size = 3;
				flags &= ~ZEROPAD;
   10e40:	f7fc7c13          	andi	s8,s8,-129
					sign = '-';
				if (ch <= 'G') /* 'A', 'E', 'F', or 'G' */
					cp = "INF";
				else
					cp = "inf";
				size = 3;
   10e44:	02f12023          	sw	a5,32(sp)
#endif
		fmt_anchor = fmt;
		fmt++;		/* skip over '%' */

		flags = 0;
		dprec = 0;
   10e48:	00000413          	li	s0,0
		width = 0;
		prec = -1;
		sign = '\0';
#ifdef FLOATING_POINT
		lead = 0;
   10e4c:	04012623          	sw	zero,76(sp)
					cp = "INF";
				else
					cp = "inf";
				size = 3;
				flags &= ~ZEROPAD;
				break;
   10e50:	941ff06f          	j	10790 <_vfprintf_r+0x414>
#endif /* !_NO_POS_ARGS */
			width = n;
			goto reswitch;
#ifdef FLOATING_POINT
		case 'L':
			flags |= LONGDBL;
   10e54:	008c6c13          	ori	s8,s8,8
			goto rflag;
   10e58:	ee0ff06f          	j	10538 <_vfprintf_r+0x1bc>
   10e5c:	00060463          	beqz	a2,10e64 <_vfprintf_r+0xae8>
   10e60:	1280106f          	j	11f88 <_vfprintf_r+0x1c0c>
			goto nosign;
		case 'X':
			xdigs = "0123456789ABCDEF";
			goto hex;
		case 'x':
			xdigs = "0123456789abcdef";
   10e64:	000197b7          	lui	a5,0x19
   10e68:	24078793          	addi	a5,a5,576 # 19240 <zeroes.4137+0x50>
   10e6c:	02f13c23          	sd	a5,56(sp)
hex:			_uquad = UARG ();
   10e70:	010c7793          	andi	a5,s8,16
   10e74:	b40792e3          	bnez	a5,109b8 <_vfprintf_r+0x63c>
   10e78:	040c7793          	andi	a5,s8,64
   10e7c:	02813703          	ld	a4,40(sp)
   10e80:	1c0784e3          	beqz	a5,11848 <_vfprintf_r+0x14cc>
   10e84:	00075783          	lhu	a5,0(a4)
   10e88:	00870713          	addi	a4,a4,8
   10e8c:	02e13423          	sd	a4,40(sp)
   10e90:	b39ff06f          	j	109c8 <_vfprintf_r+0x64c>
   10e94:	00060463          	beqz	a2,10e9c <_vfprintf_r+0xb20>
   10e98:	10c0106f          	j	11fa4 <_vfprintf_r+0x1c28>
#ifndef _NO_LONGLONG
			if (flags & QUADINT)
				*GET_ARG (N, ap, quad_ptr_t) = ret;
			else
#endif
			if (flags & LONGINT)
   10e9c:	010c7793          	andi	a5,s8,16
   10ea0:	1a078ce3          	beqz	a5,11858 <_vfprintf_r+0x14dc>
				*GET_ARG (N, ap, long_ptr_t) = ret;
   10ea4:	02813683          	ld	a3,40(sp)
   10ea8:	01c12703          	lw	a4,28(sp)
   10eac:	0006b783          	ld	a5,0(a3)
   10eb0:	00868693          	addi	a3,a3,8
   10eb4:	02d13423          	sd	a3,40(sp)
   10eb8:	00e7b023          	sd	a4,0(a5)
   10ebc:	de0ff06f          	j	1049c <_vfprintf_r+0x120>
   10ec0:	00060463          	beqz	a2,10ec8 <_vfprintf_r+0xb4c>
   10ec4:	0d40106f          	j	11f98 <_vfprintf_r+0x1c1c>
				size = 1;
			}
			sign = '\0';
			break;
		case 'D':  /* extension */
			flags |= LONGINT;
   10ec8:	010c6c13          	ori	s8,s8,16
			/*FALLTHROUGH*/
		case 'd':
		case 'i':
			_uquad = SARG ();
   10ecc:	010c7793          	andi	a5,s8,16
   10ed0:	ec0796e3          	bnez	a5,10d9c <_vfprintf_r+0xa20>
   10ed4:	040c7793          	andi	a5,s8,64
   10ed8:	02813703          	ld	a4,40(sp)
   10edc:	1a0780e3          	beqz	a5,1187c <_vfprintf_r+0x1500>
   10ee0:	00071783          	lh	a5,0(a4)
   10ee4:	00870713          	addi	a4,a4,8
   10ee8:	02e13423          	sd	a4,40(sp)
   10eec:	ec1ff06f          	j	10dac <_vfprintf_r+0xa30>
			 *	-- ANSI X3J11
			 */
			/* NOSTRICT */
			_uquad = (uintptr_t) GET_ARG (N, ap, void_ptr_t);
			base = HEX;
			xdigs = "0123456789abcdef";
   10ef0:	00019737          	lui	a4,0x19
   10ef4:	24070713          	addi	a4,a4,576 # 19240 <zeroes.4137+0x50>
			 * ``The result of converting a zero value with an
			 * explicit precision of zero is no characters.''
			 *	-- ANSI X3J11
			 */
			cp = buf + BUF;
			if (_uquad != 0 || prec != 0) {
   10ef8:	00000613          	li	a2,0
			 *	-- ANSI X3J11
			 */
			/* NOSTRICT */
			_uquad = (uintptr_t) GET_ARG (N, ap, void_ptr_t);
			base = HEX;
			xdigs = "0123456789abcdef";
   10efc:	02e13c23          	sd	a4,56(sp)
			flags |= HEXPREFIX;
			ox[0] = '0';
			ox[1] = ch = 'x';
   10f00:	07800d13          	li	s10,120
   10f04:	ee0ff06f          	j	105e4 <_vfprintf_r+0x268>
   10f08:	00060463          	beqz	a2,10f10 <_vfprintf_r+0xb94>
   10f0c:	0c00106f          	j	11fcc <_vfprintf_r+0x1c50>

			size = buf + BUF - cp;
		skipsize:
			break;
		default:	/* "%?" prints ?, unless ? is NUL */
			if (ch == '\0')
   10f10:	f60d0263          	beqz	s10,10674 <_vfprintf_r+0x2f8>
			/* pretend it was %c with argument ch */
			cp = buf;
			*cp = ch;
			size = 1;
			sign = '\0';
			break;
   10f14:	00100793          	li	a5,1
   10f18:	00f12423          	sw	a5,8(sp)
		default:	/* "%?" prints ?, unless ? is NUL */
			if (ch == '\0')
				goto done;
			/* pretend it was %c with argument ch */
			cp = buf;
			*cp = ch;
   10f1c:	0da10423          	sb	s10,200(sp)
			size = 1;
			sign = '\0';
   10f20:	080107a3          	sb	zero,143(sp)
			break;
   10f24:	00000613          	li	a2,0
			if (ch == '\0')
				goto done;
			/* pretend it was %c with argument ch */
			cp = buf;
			*cp = ch;
			size = 1;
   10f28:	02f12023          	sw	a5,32(sp)
#endif
		fmt_anchor = fmt;
		fmt++;		/* skip over '%' */

		flags = 0;
		dprec = 0;
   10f2c:	00000413          	li	s0,0
		width = 0;
		prec = -1;
		sign = '\0';
#ifdef FLOATING_POINT
		lead = 0;
   10f30:	04012623          	sw	zero,76(sp)
			break;
		default:	/* "%?" prints ?, unless ? is NUL */
			if (ch == '\0')
				goto done;
			/* pretend it was %c with argument ch */
			cp = buf;
   10f34:	0c810913          	addi	s2,sp,200
			*cp = ch;
			size = 1;
			sign = '\0';
			break;
   10f38:	afdff06f          	j	10a34 <_vfprintf_r+0x6b8>
			 * of printable characters, in an implementation-
			 * defined manner.''
			 *	-- ANSI X3J11
			 */
			/* NOSTRICT */
			_uquad = (uintptr_t) GET_ARG (N, ap, void_ptr_t);
   10f3c:	02e13423          	sd	a4,40(sp)
			base = HEX;
			xdigs = "0123456789abcdef";
   10f40:	00019737          	lui	a4,0x19
   10f44:	24070713          	addi	a4,a4,576 # 19240 <zeroes.4137+0x50>
			flags |= HEXPREFIX;
   10f48:	00068c13          	mv	s8,a3
			 *	-- ANSI X3J11
			 */
			/* NOSTRICT */
			_uquad = (uintptr_t) GET_ARG (N, ap, void_ptr_t);
			base = HEX;
			xdigs = "0123456789abcdef";
   10f4c:	02e13c23          	sd	a4,56(sp)
			flags |= HEXPREFIX;
			ox[0] = '0';
			ox[1] = ch = 'x';
   10f50:	07800d13          	li	s10,120
			 * ``The result of converting a zero value with an
			 * explicit precision of zero is no characters.''
			 *	-- ANSI X3J11
			 */
			cp = buf + BUF;
			if (_uquad != 0 || prec != 0) {
   10f54:	3a079a63          	bnez	a5,11308 <_vfprintf_r+0xf8c>
			/*
			 * ``... diouXx conversions ... if a precision is
			 * specified, the 0 flag will be ignored.''
			 *	-- ANSI X3J11
			 */
number:			if ((dprec = prec) >= 0)
   10f58:	00000613          	li	a2,0
			xdigs = "0123456789ABCDEF";
			goto hex;
		case 'x':
			xdigs = "0123456789abcdef";
hex:			_uquad = UARG ();
			base = HEX;
   10f5c:	00200793          	li	a5,2
				/*
				 * Unsigned mod is hard, and unsigned mod
				 * by a constant is easier than that by
				 * a variable; hence this switch.
				 */
				switch (base) {
   10f60:	00100713          	li	a4,1
   10f64:	54e78863          	beq	a5,a4,114b4 <_vfprintf_r+0x1138>
   10f68:	00200713          	li	a4,2
   10f6c:	e6e78a63          	beq	a5,a4,105e0 <_vfprintf_r+0x264>
   10f70:	00000793          	li	a5,0
   10f74:	fc4ff06f          	j	10738 <_vfprintf_r+0x3bc>
   10f78:	0c013783          	ld	a5,192(sp)
   10f7c:	ba1ff06f          	j	10b1c <_vfprintf_r+0x7a0>
					    PRINT (decimal_point, decp_len);
					PRINTANDPAD (cp, convbuf + ndig,
						     ndig - expt, zeroes);
				}
			} else {	/* 'a', 'A', 'e', or 'E' */
				if (ndig > 1 || flags & ALT) {
   10f80:	07012683          	lw	a3,112(sp)
   10f84:	00100713          	li	a4,1
					PRINT (cp, 1);
   10f88:	00178793          	addi	a5,a5,1
					    PRINT (decimal_point, decp_len);
					PRINTANDPAD (cp, convbuf + ndig,
						     ndig - expt, zeroes);
				}
			} else {	/* 'a', 'A', 'e', or 'E' */
				if (ndig > 1 || flags & ALT) {
   10f8c:	6cd75663          	ble	a3,a4,11658 <_vfprintf_r+0x12dc>
					PRINT (cp, 1);
   10f90:	0b812703          	lw	a4,184(sp)
   10f94:	00100693          	li	a3,1
   10f98:	00d8b423          	sd	a3,8(a7)
   10f9c:	0017071b          	addiw	a4,a4,1
   10fa0:	0128b023          	sd	s2,0(a7)
   10fa4:	0cf13023          	sd	a5,192(sp)
   10fa8:	0ae12c23          	sw	a4,184(sp)
   10fac:	00700693          	li	a3,7
   10fb0:	01088893          	addi	a7,a7,16
   10fb4:	6ce6ca63          	blt	a3,a4,11688 <_vfprintf_r+0x130c>
					cp++;
					PRINT (decimal_point, decp_len);
   10fb8:	06813683          	ld	a3,104(sp)
   10fbc:	06013603          	ld	a2,96(sp)
   10fc0:	0017071b          	addiw	a4,a4,1
   10fc4:	00f687b3          	add	a5,a3,a5
   10fc8:	00d8b423          	sd	a3,8(a7)
   10fcc:	00c8b023          	sd	a2,0(a7)
   10fd0:	0cf13023          	sd	a5,192(sp)
   10fd4:	0ae12c23          	sw	a4,184(sp)
   10fd8:	00700693          	li	a3,7
   10fdc:	01088893          	addi	a7,a7,16
   10fe0:	6ee6c263          	blt	a3,a4,116c4 <_vfprintf_r+0x1348>
					if (_fpvalue) {
   10fe4:	f20007d3          	fmv.d.x	fa5,zero
   10fe8:	05813707          	fld	fa4,88(sp)
   10fec:	a2f726d3          	feq.d	a3,fa4,fa5
   10ff0:	40069c63          	bnez	a3,11408 <_vfprintf_r+0x108c>
						PRINT (cp, ndig - 1);
   10ff4:	07012683          	lw	a3,112(sp)
   10ff8:	00190913          	addi	s2,s2,1
   10ffc:	0017071b          	addiw	a4,a4,1
   11000:	fff6869b          	addiw	a3,a3,-1
   11004:	00d787b3          	add	a5,a5,a3
   11008:	0128b023          	sd	s2,0(a7)
					} else	/* 0.[0..] */
						/* __dtoa irregularity */
						PAD (ndig - 1, zeroes);
				} else	/* XeYYY */
					PRINT (cp, 1);
   1100c:	00d8b423          	sd	a3,8(a7)
   11010:	0cf13023          	sd	a5,192(sp)
   11014:	0ae12c23          	sw	a4,184(sp)
   11018:	00700693          	li	a3,7
   1101c:	26e6c063          	blt	a3,a4,1127c <_vfprintf_r+0xf00>
   11020:	01088893          	addi	a7,a7,16
				PRINT (expstr, expsize);
   11024:	07412683          	lw	a3,116(sp)
   11028:	0a010613          	addi	a2,sp,160
   1102c:	0017071b          	addiw	a4,a4,1
   11030:	00f687b3          	add	a5,a3,a5
   11034:	00c8b023          	sd	a2,0(a7)
   11038:	00d8b423          	sd	a3,8(a7)
   1103c:	0cf13023          	sd	a5,192(sp)
   11040:	0ae12c23          	sw	a4,184(sp)
   11044:	00700693          	li	a3,7
   11048:	c4e6d2e3          	ble	a4,a3,10c8c <_vfprintf_r+0x910>
   1104c:	0b010613          	addi	a2,sp,176
   11050:	000a0593          	mv	a1,s4
   11054:	000b8513          	mv	a0,s7
   11058:	548050ef          	jal	165a0 <__sprint_r>
   1105c:	e2051863          	bnez	a0,1068c <_vfprintf_r+0x310>
   11060:	0c013783          	ld	a5,192(sp)
   11064:	000b0893          	mv	a7,s6
   11068:	c29ff06f          	j	10c90 <_vfprintf_r+0x914>
		/* the string or number proper */
#ifdef FLOATING_POINT
		if ((flags & FPT) == 0) {
			PRINT (cp, size);
		} else {	/* glue together f_p fragments */
			if (ch >= 'f') {	/* 'f' or 'g' */
   1106c:	06500713          	li	a4,101
   11070:	f1a758e3          	ble	s10,a4,10f80 <_vfprintf_r+0xc04>
				if (_fpvalue == 0) {
   11074:	f20007d3          	fmv.d.x	fa5,zero
   11078:	05813707          	fld	fa4,88(sp)
   1107c:	a2f72753          	feq.d	a4,fa4,fa5
   11080:	28070863          	beqz	a4,11310 <_vfprintf_r+0xf94>
					/* kludge for __dtoa irregularity */
					PRINT ("0", 1);
   11084:	0b812703          	lw	a4,184(sp)
   11088:	000196b7          	lui	a3,0x19
   1108c:	26068693          	addi	a3,a3,608 # 19260 <zeroes.4137+0x70>
   11090:	00d8b023          	sd	a3,0(a7)
   11094:	00178793          	addi	a5,a5,1
   11098:	00100693          	li	a3,1
   1109c:	0017071b          	addiw	a4,a4,1
   110a0:	00d8b423          	sd	a3,8(a7)
   110a4:	0cf13023          	sd	a5,192(sp)
   110a8:	0ae12c23          	sw	a4,184(sp)
   110ac:	00700693          	li	a3,7
   110b0:	01088893          	addi	a7,a7,16
   110b4:	7ee6ca63          	blt	a3,a4,118a8 <_vfprintf_r+0x152c>
					if (expt < ndig || flags & ALT) {
   110b8:	09812703          	lw	a4,152(sp)
   110bc:	07012683          	lw	a3,112(sp)
   110c0:	00d74663          	blt	a4,a3,110cc <_vfprintf_r+0xd50>
   110c4:	001c7713          	andi	a4,s8,1
   110c8:	bc0704e3          	beqz	a4,10c90 <_vfprintf_r+0x914>
						PRINT (decimal_point, decp_len);
   110cc:	06013703          	ld	a4,96(sp)
   110d0:	06813683          	ld	a3,104(sp)
   110d4:	01088893          	addi	a7,a7,16
   110d8:	fee8b823          	sd	a4,-16(a7)
   110dc:	0b812703          	lw	a4,184(sp)
   110e0:	00d787b3          	add	a5,a5,a3
   110e4:	fed8bc23          	sd	a3,-8(a7)
   110e8:	0017071b          	addiw	a4,a4,1
   110ec:	0cf13023          	sd	a5,192(sp)
   110f0:	0ae12c23          	sw	a4,184(sp)
   110f4:	00700693          	li	a3,7
   110f8:	1ce6c8e3          	blt	a3,a4,11ac8 <_vfprintf_r+0x174c>
						PAD (ndig - 1, zeroes);
   110fc:	07012703          	lw	a4,112(sp)
   11100:	fff7041b          	addiw	s0,a4,-1
   11104:	b88056e3          	blez	s0,10c90 <_vfprintf_r+0x914>
   11108:	01000713          	li	a4,16
   1110c:	36875c63          	ble	s0,a4,11484 <_vfprintf_r+0x1108>
   11110:	01000913          	li	s2,16
   11114:	0b812703          	lw	a4,184(sp)
   11118:	00913823          	sd	s1,16(sp)
   1111c:	00700d13          	li	s10,7
   11120:	00090693          	mv	a3,s2
   11124:	00c0006f          	j	11130 <_vfprintf_r+0xdb4>
   11128:	ff04041b          	addiw	s0,s0,-16
   1112c:	3686d063          	ble	s0,a3,1148c <_vfprintf_r+0x1110>
   11130:	01078793          	addi	a5,a5,16
   11134:	0017071b          	addiw	a4,a4,1
   11138:	0098b023          	sd	s1,0(a7)
   1113c:	0128b423          	sd	s2,8(a7)
   11140:	0cf13023          	sd	a5,192(sp)
   11144:	0ae12c23          	sw	a4,184(sp)
   11148:	01088893          	addi	a7,a7,16
   1114c:	fced5ee3          	ble	a4,s10,11128 <_vfprintf_r+0xdac>
   11150:	0b010613          	addi	a2,sp,176
   11154:	000a0593          	mv	a1,s4
   11158:	000b8513          	mv	a0,s7
   1115c:	00d13023          	sd	a3,0(sp)
   11160:	440050ef          	jal	165a0 <__sprint_r>
   11164:	d2051463          	bnez	a0,1068c <_vfprintf_r+0x310>
   11168:	0c013783          	ld	a5,192(sp)
   1116c:	0b812703          	lw	a4,184(sp)
   11170:	000b0893          	mv	a7,s6
   11174:	00013683          	ld	a3,0(sp)
   11178:	fb1ff06f          	j	11128 <_vfprintf_r+0xdac>
		if (flags & HEXPREFIX)
			PRINT (ox, 2);

		/* right-adjusting zero padding */
		if ((flags & (LADJUST|ZEROPAD)) == ZEROPAD)
			PAD (width - realsz, zeroes);
   1117c:	01812703          	lw	a4,24(sp)
   11180:	00812683          	lw	a3,8(sp)
   11184:	40d70cbb          	subw	s9,a4,a3
   11188:	a19056e3          	blez	s9,10b94 <_vfprintf_r+0x818>
   1118c:	01000713          	li	a4,16
   11190:	2f975ee3          	ble	s9,a4,11c8c <_vfprintf_r+0x1910>
   11194:	01000813          	li	a6,16
   11198:	0b812703          	lw	a4,184(sp)
   1119c:	00913823          	sd	s1,16(sp)
   111a0:	00700313          	li	t1,7
   111a4:	00080d93          	mv	s11,a6
   111a8:	00c0006f          	j	111b4 <_vfprintf_r+0xe38>
   111ac:	ff0c8c9b          	addiw	s9,s9,-16
   111b0:	059dde63          	ble	s9,s11,1120c <_vfprintf_r+0xe90>
   111b4:	01078793          	addi	a5,a5,16
   111b8:	0017071b          	addiw	a4,a4,1
   111bc:	0098b023          	sd	s1,0(a7)
   111c0:	0108b423          	sd	a6,8(a7)
   111c4:	0cf13023          	sd	a5,192(sp)
   111c8:	0ae12c23          	sw	a4,184(sp)
   111cc:	01088893          	addi	a7,a7,16
   111d0:	fce35ee3          	ble	a4,t1,111ac <_vfprintf_r+0xe30>
   111d4:	0b010613          	addi	a2,sp,176
   111d8:	000a0593          	mv	a1,s4
   111dc:	000b8513          	mv	a0,s7
   111e0:	04613023          	sd	t1,64(sp)
   111e4:	01013023          	sd	a6,0(sp)
   111e8:	3b8050ef          	jal	165a0 <__sprint_r>
   111ec:	ca051063          	bnez	a0,1068c <_vfprintf_r+0x310>
   111f0:	ff0c8c9b          	addiw	s9,s9,-16
   111f4:	0c013783          	ld	a5,192(sp)
   111f8:	0b812703          	lw	a4,184(sp)
   111fc:	000b0893          	mv	a7,s6
   11200:	04013303          	ld	t1,64(sp)
   11204:	00013803          	ld	a6,0(sp)
   11208:	fb9dc6e3          	blt	s11,s9,111b4 <_vfprintf_r+0xe38>
   1120c:	01013603          	ld	a2,16(sp)
   11210:	019787b3          	add	a5,a5,s9
   11214:	0017071b          	addiw	a4,a4,1
   11218:	00c8b023          	sd	a2,0(a7)
   1121c:	0198b423          	sd	s9,8(a7)
   11220:	0cf13023          	sd	a5,192(sp)
   11224:	0ae12c23          	sw	a4,184(sp)
   11228:	00700693          	li	a3,7
   1122c:	01088893          	addi	a7,a7,16
   11230:	96e6d2e3          	ble	a4,a3,10b94 <_vfprintf_r+0x818>
   11234:	0b010613          	addi	a2,sp,176
   11238:	000a0593          	mv	a1,s4
   1123c:	000b8513          	mv	a0,s7
   11240:	360050ef          	jal	165a0 <__sprint_r>
   11244:	c4051463          	bnez	a0,1068c <_vfprintf_r+0x310>
   11248:	0c013783          	ld	a5,192(sp)
   1124c:	000b0893          	mv	a7,s6
   11250:	945ff06f          	j	10b94 <_vfprintf_r+0x818>
   11254:	00913823          	sd	s1,16(sp)
					PRINT (decimal_point, decp_len);
					if (_fpvalue) {
						PRINT (cp, ndig - 1);
					} else	/* 0.[0..] */
						/* __dtoa irregularity */
						PAD (ndig - 1, zeroes);
   11258:	01013683          	ld	a3,16(sp)
   1125c:	008787b3          	add	a5,a5,s0
   11260:	0017071b          	addiw	a4,a4,1
   11264:	00d8b023          	sd	a3,0(a7)
   11268:	0088b423          	sd	s0,8(a7)
   1126c:	0cf13023          	sd	a5,192(sp)
   11270:	0ae12c23          	sw	a4,184(sp)
   11274:	00700693          	li	a3,7
   11278:	dae6d4e3          	ble	a4,a3,11020 <_vfprintf_r+0xca4>
				} else	/* XeYYY */
					PRINT (cp, 1);
   1127c:	0b010613          	addi	a2,sp,176
   11280:	000a0593          	mv	a1,s4
   11284:	000b8513          	mv	a0,s7
   11288:	318050ef          	jal	165a0 <__sprint_r>
   1128c:	c0051063          	bnez	a0,1068c <_vfprintf_r+0x310>
   11290:	0c013783          	ld	a5,192(sp)
   11294:	0b812703          	lw	a4,184(sp)
   11298:	000b0893          	mv	a7,s6
   1129c:	d89ff06f          	j	11024 <_vfprintf_r+0xca8>
			PAD (width - realsz, blanks);

		/* finally, adjust ret */
		ret += width > realsz ? width : realsz;

		FLUSH ();	/* copy out the I/O vectors */
   112a0:	0b010613          	addi	a2,sp,176
   112a4:	000a0593          	mv	a1,s4
   112a8:	000b8513          	mv	a0,s7
   112ac:	2f4050ef          	jal	165a0 <__sprint_r>
   112b0:	ac0502e3          	beqz	a0,10d74 <_vfprintf_r+0x9f8>
   112b4:	bd8ff06f          	j	1068c <_vfprintf_r+0x310>
		if ((flags & (LADJUST|ZEROPAD)) == 0)
			PAD (width - realsz, blanks);

		/* prefix */
		if (sign)
			PRINT (&sign, 1);
   112b8:	0b010613          	addi	a2,sp,176
   112bc:	000a0593          	mv	a1,s4
   112c0:	000b8513          	mv	a0,s7
   112c4:	2dc050ef          	jal	165a0 <__sprint_r>
   112c8:	bc051263          	bnez	a0,1068c <_vfprintf_r+0x310>
   112cc:	0c013783          	ld	a5,192(sp)
   112d0:	000b0893          	mv	a7,s6
   112d4:	87dff06f          	j	10b50 <_vfprintf_r+0x7d4>
		if (flags & HEXPREFIX)
			PRINT (ox, 2);
   112d8:	0b010613          	addi	a2,sp,176
   112dc:	000a0593          	mv	a1,s4
   112e0:	000b8513          	mv	a0,s7
   112e4:	2bc050ef          	jal	165a0 <__sprint_r>
   112e8:	ba051263          	bnez	a0,1068c <_vfprintf_r+0x310>
   112ec:	0c013783          	ld	a5,192(sp)
   112f0:	000b0893          	mv	a7,s6
   112f4:	895ff06f          	j	10b88 <_vfprintf_r+0x80c>

#ifdef _WANT_IO_C99_FORMATS
			flags &= ~GROUPING;
#endif
			/* unsigned conversions */
nosign:			sign = '\0';
   112f8:	080107a3          	sb	zero,143(sp)
			/*
			 * ``... diouXx conversions ... if a precision is
			 * specified, the 0 flag will be ignored.''
			 *	-- ANSI X3J11
			 */
number:			if ((dprec = prec) >= 0)
   112fc:	c4044ce3          	bltz	s0,10f54 <_vfprintf_r+0xbd8>
				flags &= ~ZEROPAD;
   11300:	f7fc7c13          	andi	s8,s8,-129
			 * ``The result of converting a zero value with an
			 * explicit precision of zero is no characters.''
			 *	-- ANSI X3J11
			 */
			cp = buf + BUF;
			if (_uquad != 0 || prec != 0) {
   11304:	ac078a63          	beqz	a5,105d8 <_vfprintf_r+0x25c>
   11308:	00000613          	li	a2,0
   1130c:	ad8ff06f          	j	105e4 <_vfprintf_r+0x268>
					PRINT ("0", 1);
					if (expt < ndig || flags & ALT) {
						PRINT (decimal_point, decp_len);
						PAD (ndig - 1, zeroes);
					}
				} else if (expt <= 0) {
   11310:	09812403          	lw	s0,152(sp)
   11314:	5a805c63          	blez	s0,118cc <_vfprintf_r+0x1550>
   11318:	04c12703          	lw	a4,76(sp)
   1131c:	07012683          	lw	a3,112(sp)
   11320:	00070413          	mv	s0,a4
   11324:	00e6d463          	ble	a4,a3,1132c <_vfprintf_r+0xfb0>
   11328:	00068413          	mv	s0,a3
						PAD (-expt, zeroes);
						PRINT (cp, ndig);
					}
				} else {
					char *convbuf = cp;
					PRINTANDPAD(cp, convbuf + ndig,
   1132c:	02805663          	blez	s0,11358 <_vfprintf_r+0xfdc>
   11330:	0b812703          	lw	a4,184(sp)
   11334:	008787b3          	add	a5,a5,s0
   11338:	0128b023          	sd	s2,0(a7)
   1133c:	0017071b          	addiw	a4,a4,1
   11340:	0088b423          	sd	s0,8(a7)
   11344:	0cf13023          	sd	a5,192(sp)
   11348:	0ae12c23          	sw	a4,184(sp)
   1134c:	00700693          	li	a3,7
   11350:	01088893          	addi	a7,a7,16
   11354:	6ae6ca63          	blt	a3,a4,11a08 <_vfprintf_r+0x168c>
   11358:	020448e3          	bltz	s0,11b88 <_vfprintf_r+0x180c>
   1135c:	04c12703          	lw	a4,76(sp)
   11360:	4087043b          	subw	s0,a4,s0
   11364:	1a805c63          	blez	s0,1151c <_vfprintf_r+0x11a0>
   11368:	01000713          	li	a4,16
   1136c:	16875263          	ble	s0,a4,114d0 <_vfprintf_r+0x1154>
   11370:	01000d13          	li	s10,16
   11374:	0b812703          	lw	a4,184(sp)
   11378:	00913823          	sd	s1,16(sp)
   1137c:	00700693          	li	a3,7
   11380:	000d0813          	mv	a6,s10
   11384:	00c0006f          	j	11390 <_vfprintf_r+0x1014>
   11388:	ff04041b          	addiw	s0,s0,-16
   1138c:	14885663          	ble	s0,a6,114d8 <_vfprintf_r+0x115c>
   11390:	01078793          	addi	a5,a5,16
   11394:	0017071b          	addiw	a4,a4,1
   11398:	0098b023          	sd	s1,0(a7)
   1139c:	01a8b423          	sd	s10,8(a7)
   113a0:	0cf13023          	sd	a5,192(sp)
   113a4:	0ae12c23          	sw	a4,184(sp)
   113a8:	01088893          	addi	a7,a7,16
   113ac:	fce6dee3          	ble	a4,a3,11388 <_vfprintf_r+0x100c>
   113b0:	0b010613          	addi	a2,sp,176
   113b4:	000a0593          	mv	a1,s4
   113b8:	000b8513          	mv	a0,s7
   113bc:	03013023          	sd	a6,32(sp)
   113c0:	00d13023          	sd	a3,0(sp)
   113c4:	1dc050ef          	jal	165a0 <__sprint_r>
   113c8:	ac051263          	bnez	a0,1068c <_vfprintf_r+0x310>
   113cc:	0c013783          	ld	a5,192(sp)
   113d0:	0b812703          	lw	a4,184(sp)
   113d4:	000b0893          	mv	a7,s6
   113d8:	02013803          	ld	a6,32(sp)
   113dc:	00013683          	ld	a3,0(sp)
   113e0:	fa9ff06f          	j	11388 <_vfprintf_r+0x100c>
		if (flags & HEXPREFIX)
			realsz+= 2;

		/* right-adjusting blank padding */
		if ((flags & (LADJUST|ZEROPAD)) == 0)
			PAD (width - realsz, blanks);
   113e4:	0b010613          	addi	a2,sp,176
   113e8:	000a0593          	mv	a1,s4
   113ec:	000b8513          	mv	a0,s7
   113f0:	1b0050ef          	jal	165a0 <__sprint_r>
   113f4:	a8051c63          	bnez	a0,1068c <_vfprintf_r+0x310>
   113f8:	08f14603          	lbu	a2,143(sp)
   113fc:	0c013783          	ld	a5,192(sp)
   11400:	000b0893          	mv	a7,s6
   11404:	f18ff06f          	j	10b1c <_vfprintf_r+0x7a0>
					PRINT (decimal_point, decp_len);
					if (_fpvalue) {
						PRINT (cp, ndig - 1);
					} else	/* 0.[0..] */
						/* __dtoa irregularity */
						PAD (ndig - 1, zeroes);
   11408:	07012683          	lw	a3,112(sp)
   1140c:	fff6841b          	addiw	s0,a3,-1
   11410:	c0805ae3          	blez	s0,11024 <_vfprintf_r+0xca8>
   11414:	01000693          	li	a3,16
   11418:	e286dee3          	ble	s0,a3,11254 <_vfprintf_r+0xed8>
   1141c:	01000913          	li	s2,16
   11420:	00913823          	sd	s1,16(sp)
   11424:	00700d13          	li	s10,7
   11428:	00090693          	mv	a3,s2
   1142c:	00c0006f          	j	11438 <_vfprintf_r+0x10bc>
   11430:	ff04041b          	addiw	s0,s0,-16
   11434:	e286d2e3          	ble	s0,a3,11258 <_vfprintf_r+0xedc>
   11438:	01078793          	addi	a5,a5,16
   1143c:	0017071b          	addiw	a4,a4,1
   11440:	0098b023          	sd	s1,0(a7)
   11444:	0128b423          	sd	s2,8(a7)
   11448:	0cf13023          	sd	a5,192(sp)
   1144c:	0ae12c23          	sw	a4,184(sp)
   11450:	01088893          	addi	a7,a7,16
   11454:	fced5ee3          	ble	a4,s10,11430 <_vfprintf_r+0x10b4>
   11458:	0b010613          	addi	a2,sp,176
   1145c:	000a0593          	mv	a1,s4
   11460:	000b8513          	mv	a0,s7
   11464:	00d13023          	sd	a3,0(sp)
   11468:	138050ef          	jal	165a0 <__sprint_r>
   1146c:	a2051063          	bnez	a0,1068c <_vfprintf_r+0x310>
   11470:	0c013783          	ld	a5,192(sp)
   11474:	0b812703          	lw	a4,184(sp)
   11478:	000b0893          	mv	a7,s6
   1147c:	00013683          	ld	a3,0(sp)
   11480:	fb1ff06f          	j	11430 <_vfprintf_r+0x10b4>
   11484:	0b812703          	lw	a4,184(sp)
   11488:	00913823          	sd	s1,16(sp)
						cp = convbuf + ndig;
					}
#endif
					if (expt < ndig || flags & ALT)
					    PRINT (decimal_point, decp_len);
					PRINTANDPAD (cp, convbuf + ndig,
   1148c:	01013683          	ld	a3,16(sp)
   11490:	008787b3          	add	a5,a5,s0
   11494:	0088b423          	sd	s0,8(a7)
   11498:	00d8b023          	sd	a3,0(a7)
   1149c:	0017071b          	addiw	a4,a4,1
   114a0:	0cf13023          	sd	a5,192(sp)
   114a4:	0ae12c23          	sw	a4,184(sp)
   114a8:	00700693          	li	a3,7
   114ac:	fee6d063          	ble	a4,a3,10c8c <_vfprintf_r+0x910>
   114b0:	b9dff06f          	j	1104c <_vfprintf_r+0xcd0>
			 * ``The result of converting a zero value with an
			 * explicit precision of zero is no characters.''
			 *	-- ANSI X3J11
			 */
			cp = buf + BUF;
			if (_uquad != 0 || prec != 0) {
   114b4:	00000793          	li	a5,0
					break;

				case DEC:
					/* many numbers are 1 digit */
					if (_uquad < 10) {
						*--cp = to_char(_uquad);
   114b8:	0307879b          	addiw	a5,a5,48
   114bc:	0ef107a3          	sb	a5,239(sp)
   114c0:	07813783          	ld	a5,120(sp)
   114c4:	0ef10913          	addi	s2,sp,239
   114c8:	02f12023          	sw	a5,32(sp)
						break;
   114cc:	aacff06f          	j	10778 <_vfprintf_r+0x3fc>
   114d0:	0b812703          	lw	a4,184(sp)
   114d4:	00913823          	sd	s1,16(sp)
						PAD (-expt, zeroes);
						PRINT (cp, ndig);
					}
				} else {
					char *convbuf = cp;
					PRINTANDPAD(cp, convbuf + ndig,
   114d8:	01013683          	ld	a3,16(sp)
   114dc:	008787b3          	add	a5,a5,s0
   114e0:	0017071b          	addiw	a4,a4,1
   114e4:	00d8b023          	sd	a3,0(a7)
   114e8:	0088b423          	sd	s0,8(a7)
   114ec:	0cf13023          	sd	a5,192(sp)
   114f0:	0ae12c23          	sw	a4,184(sp)
   114f4:	00700693          	li	a3,7
   114f8:	01088893          	addi	a7,a7,16
   114fc:	02e6d063          	ble	a4,a3,1151c <_vfprintf_r+0x11a0>
   11500:	0b010613          	addi	a2,sp,176
   11504:	000a0593          	mv	a1,s4
   11508:	000b8513          	mv	a0,s7
   1150c:	094050ef          	jal	165a0 <__sprint_r>
   11510:	96051e63          	bnez	a0,1068c <_vfprintf_r+0x310>
   11514:	0c013783          	ld	a5,192(sp)
   11518:	000b0893          	mv	a7,s6
						    lead, zeroes);
					cp += lead;
   1151c:	04c12d03          	lw	s10,76(sp)
					    }
					    if (cp > convbuf + ndig)
						cp = convbuf + ndig;
					}
#endif
					if (expt < ndig || flags & ALT)
   11520:	09812703          	lw	a4,152(sp)
   11524:	07012683          	lw	a3,112(sp)
					}
				} else {
					char *convbuf = cp;
					PRINTANDPAD(cp, convbuf + ndig,
						    lead, zeroes);
					cp += lead;
   11528:	01a90d33          	add	s10,s2,s10
					    }
					    if (cp > convbuf + ndig)
						cp = convbuf + ndig;
					}
#endif
					if (expt < ndig || flags & ALT)
   1152c:	0cd74a63          	blt	a4,a3,11600 <_vfprintf_r+0x1284>
   11530:	001c7693          	andi	a3,s8,1
   11534:	0c069663          	bnez	a3,11600 <_vfprintf_r+0x1284>
					    PRINT (decimal_point, decp_len);
					PRINTANDPAD (cp, convbuf + ndig,
   11538:	07012683          	lw	a3,112(sp)
   1153c:	00d90433          	add	s0,s2,a3
   11540:	41a40433          	sub	s0,s0,s10
   11544:	40e6873b          	subw	a4,a3,a4
   11548:	0004041b          	sext.w	s0,s0
   1154c:	00875463          	ble	s0,a4,11554 <_vfprintf_r+0x11d8>
   11550:	00070413          	mv	s0,a4
   11554:	02805663          	blez	s0,11580 <_vfprintf_r+0x1204>
   11558:	0b812683          	lw	a3,184(sp)
   1155c:	008787b3          	add	a5,a5,s0
   11560:	01a8b023          	sd	s10,0(a7)
   11564:	0016869b          	addiw	a3,a3,1
   11568:	0088b423          	sd	s0,8(a7)
   1156c:	0cf13023          	sd	a5,192(sp)
   11570:	0ad12c23          	sw	a3,184(sp)
   11574:	00700613          	li	a2,7
   11578:	01088893          	addi	a7,a7,16
   1157c:	4cd64263          	blt	a2,a3,11a40 <_vfprintf_r+0x16c4>
   11580:	60044863          	bltz	s0,11b90 <_vfprintf_r+0x1814>
   11584:	4087043b          	subw	s0,a4,s0
   11588:	f0805463          	blez	s0,10c90 <_vfprintf_r+0x914>
   1158c:	01000713          	li	a4,16
   11590:	ee875ae3          	ble	s0,a4,11484 <_vfprintf_r+0x1108>
   11594:	01000913          	li	s2,16
   11598:	0b812703          	lw	a4,184(sp)
   1159c:	00913823          	sd	s1,16(sp)
   115a0:	00700d13          	li	s10,7
   115a4:	00090693          	mv	a3,s2
   115a8:	00c0006f          	j	115b4 <_vfprintf_r+0x1238>
   115ac:	ff04041b          	addiw	s0,s0,-16
   115b0:	ec86dee3          	ble	s0,a3,1148c <_vfprintf_r+0x1110>
   115b4:	01078793          	addi	a5,a5,16
   115b8:	0017071b          	addiw	a4,a4,1
   115bc:	0098b023          	sd	s1,0(a7)
   115c0:	0128b423          	sd	s2,8(a7)
   115c4:	0cf13023          	sd	a5,192(sp)
   115c8:	0ae12c23          	sw	a4,184(sp)
   115cc:	01088893          	addi	a7,a7,16
   115d0:	fced5ee3          	ble	a4,s10,115ac <_vfprintf_r+0x1230>
   115d4:	0b010613          	addi	a2,sp,176
   115d8:	000a0593          	mv	a1,s4
   115dc:	000b8513          	mv	a0,s7
   115e0:	00d13023          	sd	a3,0(sp)
   115e4:	7bd040ef          	jal	165a0 <__sprint_r>
   115e8:	8a051263          	bnez	a0,1068c <_vfprintf_r+0x310>
   115ec:	0c013783          	ld	a5,192(sp)
   115f0:	0b812703          	lw	a4,184(sp)
   115f4:	000b0893          	mv	a7,s6
   115f8:	00013683          	ld	a3,0(sp)
   115fc:	fb1ff06f          	j	115ac <_vfprintf_r+0x1230>
					    if (cp > convbuf + ndig)
						cp = convbuf + ndig;
					}
#endif
					if (expt < ndig || flags & ALT)
					    PRINT (decimal_point, decp_len);
   11600:	06013683          	ld	a3,96(sp)
   11604:	06813603          	ld	a2,104(sp)
   11608:	01088893          	addi	a7,a7,16
   1160c:	fed8b823          	sd	a3,-16(a7)
   11610:	0b812683          	lw	a3,184(sp)
   11614:	00c787b3          	add	a5,a5,a2
   11618:	fec8bc23          	sd	a2,-8(a7)
   1161c:	0016869b          	addiw	a3,a3,1
   11620:	0cf13023          	sd	a5,192(sp)
   11624:	0ad12c23          	sw	a3,184(sp)
   11628:	00700613          	li	a2,7
   1162c:	f0d656e3          	ble	a3,a2,11538 <_vfprintf_r+0x11bc>
   11630:	0b010613          	addi	a2,sp,176
   11634:	000a0593          	mv	a1,s4
   11638:	000b8513          	mv	a0,s7
   1163c:	765040ef          	jal	165a0 <__sprint_r>
   11640:	00050463          	beqz	a0,11648 <_vfprintf_r+0x12cc>
   11644:	848ff06f          	j	1068c <_vfprintf_r+0x310>
   11648:	09812703          	lw	a4,152(sp)
   1164c:	0c013783          	ld	a5,192(sp)
   11650:	000b0893          	mv	a7,s6
   11654:	ee5ff06f          	j	11538 <_vfprintf_r+0x11bc>
					PRINTANDPAD (cp, convbuf + ndig,
						     ndig - expt, zeroes);
				}
			} else {	/* 'a', 'A', 'e', or 'E' */
				if (ndig > 1 || flags & ALT) {
   11658:	00ec7733          	and	a4,s8,a4
   1165c:	92071ae3          	bnez	a4,10f90 <_vfprintf_r+0xc14>
						PRINT (cp, ndig - 1);
					} else	/* 0.[0..] */
						/* __dtoa irregularity */
						PAD (ndig - 1, zeroes);
				} else	/* XeYYY */
					PRINT (cp, 1);
   11660:	0b812703          	lw	a4,184(sp)
   11664:	0128b023          	sd	s2,0(a7)
   11668:	00100693          	li	a3,1
   1166c:	0017071b          	addiw	a4,a4,1
   11670:	99dff06f          	j	1100c <_vfprintf_r+0xc90>
			break;
		case 'U': /* extension */
			flags |= LONGINT;
			/*FALLTHROUGH*/
		case 'u':
			_uquad = UARG ();
   11674:	02813783          	ld	a5,40(sp)
   11678:	00878713          	addi	a4,a5,8
   1167c:	0007e783          	lwu	a5,0(a5)
			/*
			 * ``... diouXx conversions ... if a precision is
			 * specified, the 0 flag will be ignored.''
			 *	-- ANSI X3J11
			 */
number:			if ((dprec = prec) >= 0)
   11680:	a0045e63          	bgez	s0,1089c <_vfprintf_r+0x520>
   11684:	b04ff06f          	j	10988 <_vfprintf_r+0x60c>
					PRINTANDPAD (cp, convbuf + ndig,
						     ndig - expt, zeroes);
				}
			} else {	/* 'a', 'A', 'e', or 'E' */
				if (ndig > 1 || flags & ALT) {
					PRINT (cp, 1);
   11688:	0b010613          	addi	a2,sp,176
   1168c:	000a0593          	mv	a1,s4
   11690:	000b8513          	mv	a0,s7
   11694:	70d040ef          	jal	165a0 <__sprint_r>
   11698:	00050463          	beqz	a0,116a0 <_vfprintf_r+0x1324>
   1169c:	ff1fe06f          	j	1068c <_vfprintf_r+0x310>
   116a0:	0c013783          	ld	a5,192(sp)
   116a4:	0b812703          	lw	a4,184(sp)
   116a8:	000b0893          	mv	a7,s6
   116ac:	90dff06f          	j	10fb8 <_vfprintf_r+0xc3c>
			continue;	/* no output */
		case 'O': /* extension */
			flags |= LONGINT;
			/*FALLTHROUGH*/
		case 'o':
			_uquad = UARG ();
   116b0:	02813783          	ld	a5,40(sp)
   116b4:	00878713          	addi	a4,a5,8
   116b8:	0007e783          	lwu	a5,0(a5)
			/*
			 * ``... diouXx conversions ... if a precision is
			 * specified, the 0 flag will be ignored.''
			 *	-- ANSI X3J11
			 */
number:			if ((dprec = prec) >= 0)
   116bc:	86045063          	bgez	s0,1071c <_vfprintf_r+0x3a0>
   116c0:	a84ff06f          	j	10944 <_vfprintf_r+0x5c8>
				}
			} else {	/* 'a', 'A', 'e', or 'E' */
				if (ndig > 1 || flags & ALT) {
					PRINT (cp, 1);
					cp++;
					PRINT (decimal_point, decp_len);
   116c4:	0b010613          	addi	a2,sp,176
   116c8:	000a0593          	mv	a1,s4
   116cc:	000b8513          	mv	a0,s7
   116d0:	6d1040ef          	jal	165a0 <__sprint_r>
   116d4:	00050463          	beqz	a0,116dc <_vfprintf_r+0x1360>
   116d8:	fb5fe06f          	j	1068c <_vfprintf_r+0x310>
   116dc:	0c013783          	ld	a5,192(sp)
   116e0:	0b812703          	lw	a4,184(sp)
   116e4:	000b0893          	mv	a7,s6
   116e8:	8fdff06f          	j	10fe4 <_vfprintf_r+0xc68>
			if ((long) _uquad < 0)
#endif
			{

				_uquad = -_uquad;
				sign = '-';
   116ec:	02d00713          	li	a4,45
   116f0:	08e107a3          	sb	a4,143(sp)
#else
			if ((long) _uquad < 0)
#endif
			{

				_uquad = -_uquad;
   116f4:	40f007b3          	neg	a5,a5
			/*
			 * ``... diouXx conversions ... if a precision is
			 * specified, the 0 flag will be ignored.''
			 *	-- ANSI X3J11
			 */
number:			if ((dprec = prec) >= 0)
   116f8:	4a044063          	bltz	s0,11b98 <_vfprintf_r+0x181c>
				flags &= ~ZEROPAD;
   116fc:	f7fc7c13          	andi	s8,s8,-129
   11700:	02d00613          	li	a2,45
   11704:	9a8ff06f          	j	108ac <_vfprintf_r+0x530>
					cp = "inf";
				size = 3;
				flags &= ~ZEROPAD;
				break;
			}
			if (isnan (_fpvalue)) {
   11708:	05813507          	fld	fa0,88(sp)
   1170c:	01113023          	sd	a7,0(sp)
   11710:	1e1040ef          	jal	160f0 <__fpclassifyd>
   11714:	00013883          	ld	a7,0(sp)
   11718:	2a050463          	beqz	a0,119c0 <_vfprintf_r+0x1644>
				  }
				else
				  cp = buf;
			} else
# endif /* _WANT_IO_C99_FORMATS */
			if (prec == -1) {
   1171c:	fff00793          	li	a5,-1
   11720:	fdfd7d93          	andi	s11,s10,-33
   11724:	62f40c63          	beq	s0,a5,11d5c <_vfprintf_r+0x19e0>
				prec = DEFPREC;
			} else if ((ch == 'g' || ch == 'G') && prec == 0) {
   11728:	04700793          	li	a5,71
   1172c:	62fd8263          	beq	s11,a5,11d50 <_vfprintf_r+0x19d4>
	int mode, dsgn;
	char *digits, *bp, *rve;
# ifdef _NO_LONGDBL
	union double_union tmp;

	tmp.d = value;
   11730:	05813703          	ld	a4,88(sp)
				prec = DEFPREC;
			} else if ((ch == 'g' || ch == 'G') && prec == 0) {
				prec = 1;
			}

			flags |= FPT;
   11734:	100c6693          	ori	a3,s8,256
   11738:	00d12023          	sw	a3,0(sp)
	char *digits, *bp, *rve;
# ifdef _NO_LONGDBL
	union double_union tmp;

	tmp.d = value;
	if (word0 (tmp) & Sign_bit) { /* this will check for < 0 and -0.0 */
   1173c:	42075793          	srai	a5,a4,0x20
   11740:	f2070453          	fmv.d.x	fs0,a4
		value = -value;
		*sign = '-';
	} else
		*sign = '\000';
   11744:	00000c93          	li	s9,0
	char *digits, *bp, *rve;
# ifdef _NO_LONGDBL
	union double_union tmp;

	tmp.d = value;
	if (word0 (tmp) & Sign_bit) { /* this will check for < 0 and -0.0 */
   11748:	6607c663          	bltz	a5,11db4 <_vfprintf_r+0x1a38>
		}
		*length = bp - buf;
		return buf;
	}
# endif /* _WANT_IO_C99_FORMATS */
	if (ch == 'f' || ch == 'F') {
   1174c:	06600793          	li	a5,102
   11750:	60fd0a63          	beq	s10,a5,11d64 <_vfprintf_r+0x19e8>
   11754:	04600793          	li	a5,70
   11758:	72fd0863          	beq	s10,a5,11e88 <_vfprintf_r+0x1b0c>
		/* To obtain ndigits after the decimal point for the 'e'
		 * and 'E' formats, round to ndigits + 1 significant
		 * figures.
		 */
		if (ch == 'e' || ch == 'E') {
			ndigits++;
   1175c:	fbbd859b          	addiw	a1,s11,-69
   11760:	0015b593          	seqz	a1,a1
		}
		mode = 2;		/* ndigits significant digits */
	}

	digits = _DTOA_R (data, value, mode, ndigits, decpt, &dsgn, &rve);
   11764:	228405d3          	fmv.d	fa1,fs0
		/* To obtain ndigits after the decimal point for the 'e'
		 * and 'E' formats, round to ndigits + 1 significant
		 * figures.
		 */
		if (ch == 'e' || ch == 'E') {
			ndigits++;
   11768:	00b405bb          	addw	a1,s0,a1
		}
		mode = 2;		/* ndigits significant digits */
	}

	digits = _DTOA_R (data, value, mode, ndigits, decpt, &dsgn, &rve);
   1176c:	09c10793          	addi	a5,sp,156
   11770:	00058693          	mv	a3,a1
   11774:	0a810813          	addi	a6,sp,168
   11778:	09810713          	addi	a4,sp,152
   1177c:	00200613          	li	a2,2
   11780:	000b8513          	mv	a0,s7
   11784:	01113823          	sd	a7,16(sp)
   11788:	00b13423          	sd	a1,8(sp)
   1178c:	745000ef          	jal	126d0 <_dtoa_r>

	if ((ch != 'g' && ch != 'G') || flags & ALT) {	/* Print trailing zeros */
   11790:	06700793          	li	a5,103
			ndigits++;
		}
		mode = 2;		/* ndigits significant digits */
	}

	digits = _DTOA_R (data, value, mode, ndigits, decpt, &dsgn, &rve);
   11794:	00050913          	mv	s2,a0

	if ((ch != 'g' && ch != 'G') || flags & ALT) {	/* Print trailing zeros */
   11798:	00813583          	ld	a1,8(sp)
   1179c:	01013883          	ld	a7,16(sp)
   117a0:	46fd0863          	beq	s10,a5,11c10 <_vfprintf_r+0x1894>
   117a4:	04700793          	li	a5,71
		bp = digits + ndigits;
   117a8:	00b50733          	add	a4,a0,a1
		mode = 2;		/* ndigits significant digits */
	}

	digits = _DTOA_R (data, value, mode, ndigits, decpt, &dsgn, &rve);

	if ((ch != 'g' && ch != 'G') || flags & ALT) {	/* Print trailing zeros */
   117ac:	48fd0a63          	beq	s10,a5,11c40 <_vfprintf_r+0x18c4>
		if (ch == 'f' || ch == 'F') {
			if (*digits == '0' && value)
				*decpt = -ndigits + 1;
			bp += *decpt;
		}
		if (value == 0)	/* kludge for __dtoa irregularity */
   117b0:	f20007d3          	fmv.d.x	fa5,zero
   117b4:	00070793          	mv	a5,a4
   117b8:	a2f426d3          	feq.d	a3,fs0,fa5
   117bc:	02069263          	bnez	a3,117e0 <_vfprintf_r+0x1464>
			rve = bp;
		while (rve < bp)
   117c0:	0a813783          	ld	a5,168(sp)
   117c4:	00e7fe63          	bleu	a4,a5,117e0 <_vfprintf_r+0x1464>
			*rve++ = '0';
   117c8:	03000613          	li	a2,48
   117cc:	00178693          	addi	a3,a5,1
   117d0:	0ad13423          	sd	a3,168(sp)
   117d4:	00c78023          	sb	a2,0(a5)
				*decpt = -ndigits + 1;
			bp += *decpt;
		}
		if (value == 0)	/* kludge for __dtoa irregularity */
			rve = bp;
		while (rve < bp)
   117d8:	0a813783          	ld	a5,168(sp)
   117dc:	fee7e8e3          	bltu	a5,a4,117cc <_vfprintf_r+0x1450>
			*rve++ = '0';
	}
	*length = rve - digits;
   117e0:	412787b3          	sub	a5,a5,s2
   117e4:	06f12823          	sw	a5,112(sp)
			flags |= FPT;

			cp = cvt (data, _fpvalue, prec, flags, &softsign,
				  &expt, ch, &ndig, cp);

			if (ch == 'g' || ch == 'G') {
   117e8:	04700793          	li	a5,71
   117ec:	46fd8663          	beq	s11,a5,11c58 <_vfprintf_r+0x18dc>
			}
# ifdef _WANT_IO_C99_FORMATS
			else if (ch == 'F')
				ch = 'f';
# endif
			if (ch <= 'e') {	/* 'a', 'A', 'e', or 'E' fmt */
   117f0:	06500793          	li	a5,101
   117f4:	7ba7dc63          	ble	s10,a5,11fac <_vfprintf_r+0x1c30>
					++size;
# ifdef _WANT_IO_C99_FORMATS
				flags &= ~GROUPING;
# endif
			} else {
				if (ch == 'f') {		/* f fmt */
   117f8:	06600793          	li	a5,102
   117fc:	60fd0263          	beq	s10,a5,11e00 <_vfprintf_r+0x1a84>
   11800:	09812783          	lw	a5,152(sp)
   11804:	04f12623          	sw	a5,76(sp)
							size += prec + 1;
					} else	/* "0.X" */
						size = (prec || flags & ALT)
							  ? prec + 2
							  : 1;
				} else if (expt >= ndig) { /* fixed g fmt */
   11808:	04c12703          	lw	a4,76(sp)
   1180c:	07012683          	lw	a3,112(sp)
   11810:	00070793          	mv	a5,a4
   11814:	5ad74663          	blt	a4,a3,11dc0 <_vfprintf_r+0x1a44>
					size = expt;
					if (flags & ALT)
   11818:	001c7c13          	andi	s8,s8,1
   1181c:	5c0c1463          	bnez	s8,11de4 <_vfprintf_r+0x1a68>
   11820:	76074863          	bltz	a4,11f90 <_vfprintf_r+0x1c14>
   11824:	04c12703          	lw	a4,76(sp)
   11828:	06700d13          	li	s10,103
   1182c:	02e12023          	sw	a4,32(sp)
				} else
# endif
					lead = expt;
			}

			if (softsign)
   11830:	440c9063          	bnez	s9,11c70 <_vfprintf_r+0x18f4>
   11834:	08f14603          	lbu	a2,143(sp)
   11838:	00f12423          	sw	a5,8(sp)
				prec = DEFPREC;
			} else if ((ch == 'g' || ch == 'G') && prec == 0) {
				prec = 1;
			}

			flags |= FPT;
   1183c:	00012c03          	lw	s8,0(sp)
#endif
		fmt_anchor = fmt;
		fmt++;		/* skip over '%' */

		flags = 0;
		dprec = 0;
   11840:	00000413          	li	s0,0
   11844:	f4dfe06f          	j	10790 <_vfprintf_r+0x414>
		case 'X':
			xdigs = "0123456789ABCDEF";
			goto hex;
		case 'x':
			xdigs = "0123456789abcdef";
hex:			_uquad = UARG ();
   11848:	00076783          	lwu	a5,0(a4)
   1184c:	00870713          	addi	a4,a4,8
   11850:	02e13423          	sd	a4,40(sp)
   11854:	974ff06f          	j	109c8 <_vfprintf_r+0x64c>
			else
#endif
			if (flags & LONGINT)
				*GET_ARG (N, ap, long_ptr_t) = ret;
			else if (flags & SHORTINT)
				*GET_ARG (N, ap, short_ptr_t) = ret;
   11858:	02813703          	ld	a4,40(sp)
				*GET_ARG (N, ap, quad_ptr_t) = ret;
			else
#endif
			if (flags & LONGINT)
				*GET_ARG (N, ap, long_ptr_t) = ret;
			else if (flags & SHORTINT)
   1185c:	040c7c13          	andi	s8,s8,64
				*GET_ARG (N, ap, short_ptr_t) = ret;
   11860:	00073783          	ld	a5,0(a4)
   11864:	00870713          	addi	a4,a4,8
   11868:	02e13423          	sd	a4,40(sp)
				*GET_ARG (N, ap, quad_ptr_t) = ret;
			else
#endif
			if (flags & LONGINT)
				*GET_ARG (N, ap, long_ptr_t) = ret;
			else if (flags & SHORTINT)
   1186c:	180c0263          	beqz	s8,119f0 <_vfprintf_r+0x1674>
				*GET_ARG (N, ap, short_ptr_t) = ret;
   11870:	01c15703          	lhu	a4,28(sp)
   11874:	00e79023          	sh	a4,0(a5)
   11878:	c25fe06f          	j	1049c <_vfprintf_r+0x120>
		case 'D':  /* extension */
			flags |= LONGINT;
			/*FALLTHROUGH*/
		case 'd':
		case 'i':
			_uquad = SARG ();
   1187c:	00072783          	lw	a5,0(a4)
   11880:	00870713          	addi	a4,a4,8
   11884:	02e13423          	sd	a4,40(sp)
   11888:	d24ff06f          	j	10dac <_vfprintf_r+0xa30>

#ifdef _WANT_IO_C99_FORMATS
			flags &= ~GROUPING;
#endif
			/* unsigned conversions */
nosign:			sign = '\0';
   1188c:	080107a3          	sb	zero,143(sp)
			/*
			 * ``... diouXx conversions ... if a precision is
			 * specified, the 0 flag will be ignored.''
			 *	-- ANSI X3J11
			 */
number:			if ((dprec = prec) >= 0)
   11890:	ec044463          	bltz	s0,10f58 <_vfprintf_r+0xbdc>
				flags &= ~ZEROPAD;
   11894:	f7fc7c13          	andi	s8,s8,-129
   11898:	d41fe06f          	j	105d8 <_vfprintf_r+0x25c>
   1189c:	0b812703          	lw	a4,184(sp)
   118a0:	00913823          	sd	s1,16(sp)
   118a4:	b74ff06f          	j	10c18 <_vfprintf_r+0x89c>
			PRINT (cp, size);
		} else {	/* glue together f_p fragments */
			if (ch >= 'f') {	/* 'f' or 'g' */
				if (_fpvalue == 0) {
					/* kludge for __dtoa irregularity */
					PRINT ("0", 1);
   118a8:	0b010613          	addi	a2,sp,176
   118ac:	000a0593          	mv	a1,s4
   118b0:	000b8513          	mv	a0,s7
   118b4:	4ed040ef          	jal	165a0 <__sprint_r>
   118b8:	00050463          	beqz	a0,118c0 <_vfprintf_r+0x1544>
   118bc:	dd1fe06f          	j	1068c <_vfprintf_r+0x310>
   118c0:	0c013783          	ld	a5,192(sp)
   118c4:	000b0893          	mv	a7,s6
   118c8:	ff0ff06f          	j	110b8 <_vfprintf_r+0xd3c>
					if (expt < ndig || flags & ALT) {
						PRINT (decimal_point, decp_len);
						PAD (ndig - 1, zeroes);
					}
				} else if (expt <= 0) {
					PRINT ("0", 1);
   118cc:	0b812703          	lw	a4,184(sp)
   118d0:	000196b7          	lui	a3,0x19
   118d4:	26068693          	addi	a3,a3,608 # 19260 <zeroes.4137+0x70>
   118d8:	00d8b023          	sd	a3,0(a7)
   118dc:	00178793          	addi	a5,a5,1
   118e0:	00100693          	li	a3,1
   118e4:	0017071b          	addiw	a4,a4,1
   118e8:	00d8b423          	sd	a3,8(a7)
   118ec:	0cf13023          	sd	a5,192(sp)
   118f0:	0ae12c23          	sw	a4,184(sp)
   118f4:	00700693          	li	a3,7
   118f8:	01088893          	addi	a7,a7,16
   118fc:	16e6ca63          	blt	a3,a4,11a70 <_vfprintf_r+0x16f4>
					if (expt || ndig || flags & ALT) {
   11900:	12040663          	beqz	s0,11a2c <_vfprintf_r+0x16b0>
						PRINT (decimal_point, decp_len);
   11904:	06013703          	ld	a4,96(sp)
   11908:	06813683          	ld	a3,104(sp)
   1190c:	01088893          	addi	a7,a7,16
   11910:	fee8b823          	sd	a4,-16(a7)
   11914:	0b812703          	lw	a4,184(sp)
   11918:	00f687b3          	add	a5,a3,a5
   1191c:	fed8bc23          	sd	a3,-8(a7)
   11920:	0017071b          	addiw	a4,a4,1
   11924:	0cf13023          	sd	a5,192(sp)
   11928:	0ae12c23          	sw	a4,184(sp)
   1192c:	00700693          	li	a3,7
   11930:	3ee6ca63          	blt	a3,a4,11d24 <_vfprintf_r+0x19a8>
						PAD (-expt, zeroes);
   11934:	4080043b          	negw	s0,s0
   11938:	20805263          	blez	s0,11b3c <_vfprintf_r+0x17c0>
   1193c:	01000693          	li	a3,16
   11940:	1a86d663          	ble	s0,a3,11aec <_vfprintf_r+0x1770>
   11944:	01000d13          	li	s10,16
   11948:	00913823          	sd	s1,16(sp)
   1194c:	00700813          	li	a6,7
   11950:	000d0693          	mv	a3,s10
   11954:	00c0006f          	j	11960 <_vfprintf_r+0x15e4>
   11958:	ff04041b          	addiw	s0,s0,-16
   1195c:	1886da63          	ble	s0,a3,11af0 <_vfprintf_r+0x1774>
   11960:	01078793          	addi	a5,a5,16
   11964:	0017071b          	addiw	a4,a4,1
   11968:	0098b023          	sd	s1,0(a7)
   1196c:	01a8b423          	sd	s10,8(a7)
   11970:	0cf13023          	sd	a5,192(sp)
   11974:	0ae12c23          	sw	a4,184(sp)
   11978:	01088893          	addi	a7,a7,16
   1197c:	fce85ee3          	ble	a4,a6,11958 <_vfprintf_r+0x15dc>
   11980:	0b010613          	addi	a2,sp,176
   11984:	000a0593          	mv	a1,s4
   11988:	000b8513          	mv	a0,s7
   1198c:	02d13023          	sd	a3,32(sp)
   11990:	01013023          	sd	a6,0(sp)
   11994:	40d040ef          	jal	165a0 <__sprint_r>
   11998:	00050463          	beqz	a0,119a0 <_vfprintf_r+0x1624>
   1199c:	cf1fe06f          	j	1068c <_vfprintf_r+0x310>
   119a0:	0c013783          	ld	a5,192(sp)
   119a4:	0b812703          	lw	a4,184(sp)
   119a8:	000b0893          	mv	a7,s6
   119ac:	02013683          	ld	a3,32(sp)
   119b0:	00013803          	ld	a6,0(sp)
   119b4:	fa5ff06f          	j	11958 <_vfprintf_r+0x15dc>
	ORIENT(fp, -1);

	/* sorry, fprintf(read_only_file, "") returns EOF, not 0 */
	if (cantwrite (data, fp)) {
		_newlib_flockfile_exit (fp);
		return (EOF);
   119b8:	fff00513          	li	a0,-1
   119bc:	ce5fe06f          	j	106a0 <_vfprintf_r+0x324>
				size = 3;
				flags &= ~ZEROPAD;
				break;
			}
			if (isnan (_fpvalue)) {
				if (ch <= 'G') /* 'A', 'E', 'F', or 'G' */
   119c0:	04700793          	li	a5,71
   119c4:	27a7c863          	blt	a5,s10,11c34 <_vfprintf_r+0x18b8>
					cp = "NAN";
   119c8:	00019937          	lui	s2,0x19
   119cc:	21890913          	addi	s2,s2,536 # 19218 <zeroes.4137+0x28>
				else
					cp = "nan";
				size = 3;
				flags &= ~ZEROPAD;
				break;
   119d0:	00300793          	li	a5,3
   119d4:	00f12423          	sw	a5,8(sp)
				if (ch <= 'G') /* 'A', 'E', 'F', or 'G' */
					cp = "NAN";
				else
					cp = "nan";
				size = 3;
				flags &= ~ZEROPAD;
   119d8:	f7fc7c13          	andi	s8,s8,-129
   119dc:	08f14603          	lbu	a2,143(sp)
			if (isnan (_fpvalue)) {
				if (ch <= 'G') /* 'A', 'E', 'F', or 'G' */
					cp = "NAN";
				else
					cp = "nan";
				size = 3;
   119e0:	02f12023          	sw	a5,32(sp)
#endif
		fmt_anchor = fmt;
		fmt++;		/* skip over '%' */

		flags = 0;
		dprec = 0;
   119e4:	00000413          	li	s0,0
		width = 0;
		prec = -1;
		sign = '\0';
#ifdef FLOATING_POINT
		lead = 0;
   119e8:	04012623          	sw	zero,76(sp)
					cp = "NAN";
				else
					cp = "nan";
				size = 3;
				flags &= ~ZEROPAD;
				break;
   119ec:	da5fe06f          	j	10790 <_vfprintf_r+0x414>
#ifdef _WANT_IO_C99_FORMATS
			else if (flags & CHARINT)
				*GET_ARG (N, ap, char_ptr_t) = ret;
#endif
			else
				*GET_ARG (N, ap, int_ptr_t) = ret;
   119f0:	01c12703          	lw	a4,28(sp)
   119f4:	00e7a023          	sw	a4,0(a5)
   119f8:	aa5fe06f          	j	1049c <_vfprintf_r+0x120>
			 */
			if (isinf (_fpvalue)) {
				if (_fpvalue < 0)
					sign = '-';
				if (ch <= 'G') /* 'A', 'E', 'F', or 'G' */
					cp = "INF";
   119fc:	00019937          	lui	s2,0x19
   11a00:	20890913          	addi	s2,s2,520 # 19208 <zeroes.4137+0x18>
   11a04:	c34ff06f          	j	10e38 <_vfprintf_r+0xabc>
						PAD (-expt, zeroes);
						PRINT (cp, ndig);
					}
				} else {
					char *convbuf = cp;
					PRINTANDPAD(cp, convbuf + ndig,
   11a08:	0b010613          	addi	a2,sp,176
   11a0c:	000a0593          	mv	a1,s4
   11a10:	000b8513          	mv	a0,s7
   11a14:	38d040ef          	jal	165a0 <__sprint_r>
   11a18:	00050463          	beqz	a0,11a20 <_vfprintf_r+0x16a4>
   11a1c:	c71fe06f          	j	1068c <_vfprintf_r+0x310>
   11a20:	0c013783          	ld	a5,192(sp)
   11a24:	000b0893          	mv	a7,s6
   11a28:	931ff06f          	j	11358 <_vfprintf_r+0xfdc>
						PRINT (decimal_point, decp_len);
						PAD (ndig - 1, zeroes);
					}
				} else if (expt <= 0) {
					PRINT ("0", 1);
					if (expt || ndig || flags & ALT) {
   11a2c:	07012703          	lw	a4,112(sp)
   11a30:	ec071ae3          	bnez	a4,11904 <_vfprintf_r+0x1588>
   11a34:	001c7713          	andi	a4,s8,1
   11a38:	a4070c63          	beqz	a4,10c90 <_vfprintf_r+0x914>
   11a3c:	ec9ff06f          	j	11904 <_vfprintf_r+0x1588>
						cp = convbuf + ndig;
					}
#endif
					if (expt < ndig || flags & ALT)
					    PRINT (decimal_point, decp_len);
					PRINTANDPAD (cp, convbuf + ndig,
   11a40:	0b010613          	addi	a2,sp,176
   11a44:	000a0593          	mv	a1,s4
   11a48:	000b8513          	mv	a0,s7
   11a4c:	355040ef          	jal	165a0 <__sprint_r>
   11a50:	00050463          	beqz	a0,11a58 <_vfprintf_r+0x16dc>
   11a54:	c39fe06f          	j	1068c <_vfprintf_r+0x310>
   11a58:	09812703          	lw	a4,152(sp)
   11a5c:	07012683          	lw	a3,112(sp)
   11a60:	0c013783          	ld	a5,192(sp)
   11a64:	000b0893          	mv	a7,s6
   11a68:	40e6873b          	subw	a4,a3,a4
   11a6c:	b15ff06f          	j	11580 <_vfprintf_r+0x1204>
					if (expt < ndig || flags & ALT) {
						PRINT (decimal_point, decp_len);
						PAD (ndig - 1, zeroes);
					}
				} else if (expt <= 0) {
					PRINT ("0", 1);
   11a70:	0b010613          	addi	a2,sp,176
   11a74:	000a0593          	mv	a1,s4
   11a78:	000b8513          	mv	a0,s7
   11a7c:	325040ef          	jal	165a0 <__sprint_r>
   11a80:	00050463          	beqz	a0,11a88 <_vfprintf_r+0x170c>
   11a84:	c09fe06f          	j	1068c <_vfprintf_r+0x310>
   11a88:	09812403          	lw	s0,152(sp)
   11a8c:	0c013783          	ld	a5,192(sp)
   11a90:	000b0893          	mv	a7,s6
					if (expt || ndig || flags & ALT) {
   11a94:	e60418e3          	bnez	s0,11904 <_vfprintf_r+0x1588>
   11a98:	f95ff06f          	j	11a2c <_vfprintf_r+0x16b0>
			*     -- ANSI X3J11
			*
			* To demonstrate this case, compile and run:
                        *    printf ("%#.0o",0);
			*/
                       else if (base == OCT && (flags & ALT))
   11a9c:	001c7793          	andi	a5,s8,1
   11aa0:	00078e63          	beqz	a5,11abc <_vfprintf_r+0x1740>
                         *--cp = '0';
   11aa4:	03000793          	li	a5,48
   11aa8:	0ef107a3          	sb	a5,239(sp)
   11aac:	07813783          	ld	a5,120(sp)
   11ab0:	0ef10913          	addi	s2,sp,239
   11ab4:	02f12023          	sw	a5,32(sp)
   11ab8:	cc1fe06f          	j	10778 <_vfprintf_r+0x3fc>
   11abc:	02012023          	sw	zero,32(sp)
			/*
			 * ``The result of converting a zero value with an
			 * explicit precision of zero is no characters.''
			 *	-- ANSI X3J11
			 */
			cp = buf + BUF;
   11ac0:	000b0913          	mv	s2,s6
   11ac4:	cb5fe06f          	j	10778 <_vfprintf_r+0x3fc>
			if (ch >= 'f') {	/* 'f' or 'g' */
				if (_fpvalue == 0) {
					/* kludge for __dtoa irregularity */
					PRINT ("0", 1);
					if (expt < ndig || flags & ALT) {
						PRINT (decimal_point, decp_len);
   11ac8:	0b010613          	addi	a2,sp,176
   11acc:	000a0593          	mv	a1,s4
   11ad0:	000b8513          	mv	a0,s7
   11ad4:	2cd040ef          	jal	165a0 <__sprint_r>
   11ad8:	00050463          	beqz	a0,11ae0 <_vfprintf_r+0x1764>
   11adc:	bb1fe06f          	j	1068c <_vfprintf_r+0x310>
   11ae0:	0c013783          	ld	a5,192(sp)
   11ae4:	000b0893          	mv	a7,s6
   11ae8:	e14ff06f          	j	110fc <_vfprintf_r+0xd80>
   11aec:	00913823          	sd	s1,16(sp)
					}
				} else if (expt <= 0) {
					PRINT ("0", 1);
					if (expt || ndig || flags & ALT) {
						PRINT (decimal_point, decp_len);
						PAD (-expt, zeroes);
   11af0:	01013683          	ld	a3,16(sp)
   11af4:	008787b3          	add	a5,a5,s0
   11af8:	0017071b          	addiw	a4,a4,1
   11afc:	00d8b023          	sd	a3,0(a7)
   11b00:	0088b423          	sd	s0,8(a7)
   11b04:	0cf13023          	sd	a5,192(sp)
   11b08:	0ae12c23          	sw	a4,184(sp)
   11b0c:	00700693          	li	a3,7
   11b10:	01088893          	addi	a7,a7,16
   11b14:	02e6d463          	ble	a4,a3,11b3c <_vfprintf_r+0x17c0>
   11b18:	0b010613          	addi	a2,sp,176
   11b1c:	000a0593          	mv	a1,s4
   11b20:	000b8513          	mv	a0,s7
   11b24:	27d040ef          	jal	165a0 <__sprint_r>
   11b28:	00050463          	beqz	a0,11b30 <_vfprintf_r+0x17b4>
   11b2c:	b61fe06f          	j	1068c <_vfprintf_r+0x310>
   11b30:	0c013783          	ld	a5,192(sp)
   11b34:	0b812703          	lw	a4,184(sp)
   11b38:	000b0893          	mv	a7,s6
						PRINT (cp, ndig);
   11b3c:	07012683          	lw	a3,112(sp)
   11b40:	0017071b          	addiw	a4,a4,1
   11b44:	0128b023          	sd	s2,0(a7)
   11b48:	00f687b3          	add	a5,a3,a5
   11b4c:	cecff06f          	j	11038 <_vfprintf_r+0xcbc>
				if (p != NULL)
					size = p - cp;
				else
					size = prec;
			} else
				size = strlen (cp);
   11b50:	00090513          	mv	a0,s2
   11b54:	091040ef          	jal	163e4 <strlen>
   11b58:	0005079b          	sext.w	a5,a0
   11b5c:	02f12023          	sw	a5,32(sp)
   11b60:	00078d93          	mv	s11,a5
   11b64:	00013883          	ld	a7,0(sp)
   11b68:	0007c463          	bltz	a5,11b70 <_vfprintf_r+0x17f4>
   11b6c:	cf5fe06f          	j	10860 <_vfprintf_r+0x4e4>
   11b70:	00000d93          	li	s11,0
   11b74:	cedfe06f          	j	10860 <_vfprintf_r+0x4e4>
   11b78:	0c013783          	ld	a5,192(sp)
   11b7c:	0b812703          	lw	a4,184(sp)
   11b80:	05513823          	sd	s5,80(sp)
   11b84:	f6dfe06f          	j	10af0 <_vfprintf_r+0x774>
						PAD (-expt, zeroes);
						PRINT (cp, ndig);
					}
				} else {
					char *convbuf = cp;
					PRINTANDPAD(cp, convbuf + ndig,
   11b88:	00000413          	li	s0,0
   11b8c:	fd0ff06f          	j	1135c <_vfprintf_r+0xfe0>
						cp = convbuf + ndig;
					}
#endif
					if (expt < ndig || flags & ALT)
					    PRINT (decimal_point, decp_len);
					PRINTANDPAD (cp, convbuf + ndig,
   11b90:	00000413          	li	s0,0
   11b94:	9f1ff06f          	j	11584 <_vfprintf_r+0x1208>
			/*
			 * ``... diouXx conversions ... if a precision is
			 * specified, the 0 flag will be ignored.''
			 *	-- ANSI X3J11
			 */
number:			if ((dprec = prec) >= 0)
   11b98:	02d00613          	li	a2,45
			{

				_uquad = -_uquad;
				sign = '-';
			}
			base = DEC;
   11b9c:	00100713          	li	a4,1
				/*
				 * Unsigned mod is hard, and unsigned mod
				 * by a constant is easier than that by
				 * a variable; hence this switch.
				 */
				switch (base) {
   11ba0:	00100693          	li	a3,1
   11ba4:	00d71463          	bne	a4,a3,11bac <_vfprintf_r+0x1830>
   11ba8:	d05fe06f          	j	108ac <_vfprintf_r+0x530>
   11bac:	00200693          	li	a3,2
   11bb0:	00d71463          	bne	a4,a3,11bb8 <_vfprintf_r+0x183c>
   11bb4:	a31fe06f          	j	105e4 <_vfprintf_r+0x268>
   11bb8:	b81fe06f          	j	10738 <_vfprintf_r+0x3bc>
			   NULL string when precision is not 0.
			   However, if we are not optimizing for size,
			   we might as well mirror glibc behavior.  */
			if (cp == NULL) {
				cp = "(null)";
				size = ((unsigned) prec > 6U) ? 6 : prec;
   11bbc:	00600713          	li	a4,6
   11bc0:	00877463          	bleu	s0,a4,11bc8 <_vfprintf_r+0x184c>
   11bc4:	00070413          	mv	s0,a4
   11bc8:	02812023          	sw	s0,32(sp)
   11bcc:	00040d93          	mv	s11,s0
   11bd0:	32044a63          	bltz	s0,11f04 <_vfprintf_r+0x1b88>
			/* Behavior is undefined if the user passed a
			   NULL string when precision is not 0.
			   However, if we are not optimizing for size,
			   we might as well mirror glibc behavior.  */
			if (cp == NULL) {
				cp = "(null)";
   11bd4:	00019937          	lui	s2,0x19
   11bd8:	01b12423          	sw	s11,8(sp)
			goto nosign;
		case 's':
#ifdef _WANT_IO_C99_FORMATS
		case 'S':
#endif
			cp = GET_ARG (N, ap, char_ptr_t);
   11bdc:	03913423          	sd	s9,40(sp)
   11be0:	00000613          	li	a2,0
#endif
		fmt_anchor = fmt;
		fmt++;		/* skip over '%' */

		flags = 0;
		dprec = 0;
   11be4:	00000413          	li	s0,0
		width = 0;
		prec = -1;
		sign = '\0';
#ifdef FLOATING_POINT
		lead = 0;
   11be8:	04012623          	sw	zero,76(sp)
			/* Behavior is undefined if the user passed a
			   NULL string when precision is not 0.
			   However, if we are not optimizing for size,
			   we might as well mirror glibc behavior.  */
			if (cp == NULL) {
				cp = "(null)";
   11bec:	25890913          	addi	s2,s2,600 # 19258 <zeroes.4137+0x68>
   11bf0:	e45fe06f          	j	10a34 <_vfprintf_r+0x6b8>
   11bf4:	0b812703          	lw	a4,184(sp)
   11bf8:	05513823          	sd	s5,80(sp)
   11bfc:	91cff06f          	j	10d18 <_vfprintf_r+0x99c>
			base = HEX;
			/* leading 0x/X only if non-zero */
			if (flags & ALT && _uquad != 0) {
				ox[0] = '0';
				ox[1] = ch;
				flags |= HEXPREFIX;
   11c00:	00070c13          	mv	s8,a4
			/*
			 * ``... diouXx conversions ... if a precision is
			 * specified, the 0 flag will be ignored.''
			 *	-- ANSI X3J11
			 */
number:			if ((dprec = prec) >= 0)
   11c04:	00000613          	li	a2,0
			xdigs = "0123456789ABCDEF";
			goto hex;
		case 'x':
			xdigs = "0123456789abcdef";
hex:			_uquad = UARG ();
			base = HEX;
   11c08:	00200713          	li	a4,2
   11c0c:	f95ff06f          	j	11ba0 <_vfprintf_r+0x1824>
		mode = 2;		/* ndigits significant digits */
	}

	digits = _DTOA_R (data, value, mode, ndigits, decpt, &dsgn, &rve);

	if ((ch != 'g' && ch != 'G') || flags & ALT) {	/* Print trailing zeros */
   11c10:	001c7793          	andi	a5,s8,1
		bp = digits + ndigits;
   11c14:	00b50733          	add	a4,a0,a1
		mode = 2;		/* ndigits significant digits */
	}

	digits = _DTOA_R (data, value, mode, ndigits, decpt, &dsgn, &rve);

	if ((ch != 'g' && ch != 'G') || flags & ALT) {	/* Print trailing zeros */
   11c18:	b8079ce3          	bnez	a5,117b0 <_vfprintf_r+0x1434>
   11c1c:	0a813783          	ld	a5,168(sp)
   11c20:	bc1ff06f          	j	117e0 <_vfprintf_r+0x1464>
			   zeros are not permitted.  Otherwise, scanf
			   could not read what printf wrote.
			 */
			if (isinf (_fpvalue)) {
				if (_fpvalue < 0)
					sign = '-';
   11c24:	02d00793          	li	a5,45
   11c28:	08f107a3          	sb	a5,143(sp)
   11c2c:	02d00613          	li	a2,45
   11c30:	9f8ff06f          	j	10e28 <_vfprintf_r+0xaac>
			}
			if (isnan (_fpvalue)) {
				if (ch <= 'G') /* 'A', 'E', 'F', or 'G' */
					cp = "NAN";
				else
					cp = "nan";
   11c34:	00019937          	lui	s2,0x19
   11c38:	22090913          	addi	s2,s2,544 # 19220 <zeroes.4137+0x30>
   11c3c:	d95ff06f          	j	119d0 <_vfprintf_r+0x1654>
		mode = 2;		/* ndigits significant digits */
	}

	digits = _DTOA_R (data, value, mode, ndigits, decpt, &dsgn, &rve);

	if ((ch != 'g' && ch != 'G') || flags & ALT) {	/* Print trailing zeros */
   11c40:	001c7793          	andi	a5,s8,1
   11c44:	26079a63          	bnez	a5,11eb8 <_vfprintf_r+0x1b3c>
		if (value == 0)	/* kludge for __dtoa irregularity */
			rve = bp;
		while (rve < bp)
			*rve++ = '0';
	}
	*length = rve - digits;
   11c48:	0a813783          	ld	a5,168(sp)
   11c4c:	412787b3          	sub	a5,a5,s2
   11c50:	06f12823          	sw	a5,112(sp)
			flags |= FPT;

			cp = cvt (data, _fpvalue, prec, flags, &softsign,
				  &expt, ch, &ndig, cp);

			if (ch == 'g' || ch == 'G') {
   11c54:	35ad9c63          	bne	s11,s10,11fac <_vfprintf_r+0x1c30>
				if (expt <= -4 || expt > prec)
   11c58:	09812783          	lw	a5,152(sp)
   11c5c:	ffd00713          	li	a4,-3
   11c60:	02e7cc63          	blt	a5,a4,11c98 <_vfprintf_r+0x191c>
   11c64:	02f44a63          	blt	s0,a5,11c98 <_vfprintf_r+0x191c>
   11c68:	04f12623          	sw	a5,76(sp)
   11c6c:	b9dff06f          	j	11808 <_vfprintf_r+0x148c>
# endif
					lead = expt;
			}

			if (softsign)
				sign = '-';
   11c70:	02d00713          	li	a4,45
   11c74:	08e107a3          	sb	a4,143(sp)
   11c78:	00f12423          	sw	a5,8(sp)
				prec = DEFPREC;
			} else if ((ch == 'g' || ch == 'G') && prec == 0) {
				prec = 1;
			}

			flags |= FPT;
   11c7c:	00012c03          	lw	s8,0(sp)
# endif
					lead = expt;
			}

			if (softsign)
				sign = '-';
   11c80:	02d00613          	li	a2,45
#endif
		fmt_anchor = fmt;
		fmt++;		/* skip over '%' */

		flags = 0;
		dprec = 0;
   11c84:	00000413          	li	s0,0
   11c88:	b0dfe06f          	j	10794 <_vfprintf_r+0x418>
   11c8c:	0b812703          	lw	a4,184(sp)
   11c90:	00913823          	sd	s1,16(sp)
   11c94:	d78ff06f          	j	1120c <_vfprintf_r+0xe90>
			cp = cvt (data, _fpvalue, prec, flags, &softsign,
				  &expt, ch, &ndig, cp);

			if (ch == 'g' || ch == 'G') {
				if (expt <= -4 || expt > prec)
					ch -= 2; /* 'e' or 'E' */
   11c98:	ffed0d1b          	addiw	s10,s10,-2
# ifdef _WANT_IO_C99_FORMATS
			else if (ch == 'F')
				ch = 'f';
# endif
			if (ch <= 'e') {	/* 'a', 'A', 'e', or 'E' fmt */
				--expt;
   11c9c:	fff7879b          	addiw	a5,a5,-1
   11ca0:	08f12c23          	sw	a5,152(sp)
# else
#  define isa 0
# endif

	p = p0;
	*p++ = isa ? 'p' - 'a' + fmtch : fmtch;
   11ca4:	0ba10023          	sb	s10,160(sp)
	if (exp < 0) {
   11ca8:	2c07c863          	bltz	a5,11f78 <_vfprintf_r+0x1bfc>
		exp = -exp;
		*p++ = '-';
	}
	else
		*p++ = '+';
   11cac:	02b00713          	li	a4,43
   11cb0:	0ae100a3          	sb	a4,161(sp)
	t = expbuf + MAXEXPLEN;
	if (exp > 9) {
   11cb4:	00900613          	li	a2,9
   11cb8:	16f64463          	blt	a2,a5,11e20 <_vfprintf_r+0x1aa4>
		for (; t < expbuf + MAXEXPLEN; *p++ = *t++);
	}
	else {
		if (!isa)
			*p++ = '0';
		*p++ = to_char (exp);
   11cbc:	0307879b          	addiw	a5,a5,48
		*--t = to_char (exp);
		for (; t < expbuf + MAXEXPLEN; *p++ = *t++);
	}
	else {
		if (!isa)
			*p++ = '0';
   11cc0:	03000713          	li	a4,48
		*p++ = to_char (exp);
   11cc4:	0af101a3          	sb	a5,163(sp)
		*--t = to_char (exp);
		for (; t < expbuf + MAXEXPLEN; *p++ = *t++);
	}
	else {
		if (!isa)
			*p++ = '0';
   11cc8:	0ae10123          	sb	a4,162(sp)
		*p++ = to_char (exp);
   11ccc:	0a410793          	addi	a5,sp,164
	}
	return (p - p0);
   11cd0:	0a010713          	addi	a4,sp,160
   11cd4:	40e787bb          	subw	a5,a5,a4
				ch = 'f';
# endif
			if (ch <= 'e') {	/* 'a', 'A', 'e', or 'E' fmt */
				--expt;
				expsize = exponent (expstr, expt, ch);
				size = expsize + ndig;
   11cd8:	07012703          	lw	a4,112(sp)
	else {
		if (!isa)
			*p++ = '0';
		*p++ = to_char (exp);
	}
	return (p - p0);
   11cdc:	06f12a23          	sw	a5,116(sp)
				ch = 'f';
# endif
			if (ch <= 'e') {	/* 'a', 'A', 'e', or 'E' fmt */
				--expt;
				expsize = exponent (expstr, expt, ch);
				size = expsize + ndig;
   11ce0:	00e787bb          	addw	a5,a5,a4
   11ce4:	02f12023          	sw	a5,32(sp)
				if (ndig > 1 || flags & ALT)
   11ce8:	00100793          	li	a5,1
   11cec:	26e7d263          	ble	a4,a5,11f50 <_vfprintf_r+0x1bd4>
					++size;
   11cf0:	02012783          	lw	a5,32(sp)
   11cf4:	0017879b          	addiw	a5,a5,1
   11cf8:	02f12023          	sw	a5,32(sp)
   11cfc:	2607c463          	bltz	a5,11f64 <_vfprintf_r+0x1be8>
		dprec = 0;
		width = 0;
		prec = -1;
		sign = '\0';
#ifdef FLOATING_POINT
		lead = 0;
   11d00:	04012623          	sw	zero,76(sp)
   11d04:	b2dff06f          	j	11830 <_vfprintf_r+0x14b4>
				 * NUL in the first `prec' characters, and
				 * strlen () will go further.
				 */
				char *p = memchr (cp, 0, prec);

				if (p != NULL)
   11d08:	00812423          	sw	s0,8(sp)
   11d0c:	02812023          	sw	s0,32(sp)
   11d10:	08f14603          	lbu	a2,143(sp)
			goto nosign;
		case 's':
#ifdef _WANT_IO_C99_FORMATS
		case 'S':
#endif
			cp = GET_ARG (N, ap, char_ptr_t);
   11d14:	03913423          	sd	s9,40(sp)
#endif
		fmt_anchor = fmt;
		fmt++;		/* skip over '%' */

		flags = 0;
		dprec = 0;
   11d18:	00000413          	li	s0,0
		width = 0;
		prec = -1;
		sign = '\0';
#ifdef FLOATING_POINT
		lead = 0;
   11d1c:	04012623          	sw	zero,76(sp)
   11d20:	a71fe06f          	j	10790 <_vfprintf_r+0x414>
						PAD (ndig - 1, zeroes);
					}
				} else if (expt <= 0) {
					PRINT ("0", 1);
					if (expt || ndig || flags & ALT) {
						PRINT (decimal_point, decp_len);
   11d24:	0b010613          	addi	a2,sp,176
   11d28:	000a0593          	mv	a1,s4
   11d2c:	000b8513          	mv	a0,s7
   11d30:	071040ef          	jal	165a0 <__sprint_r>
   11d34:	00050463          	beqz	a0,11d3c <_vfprintf_r+0x19c0>
   11d38:	955fe06f          	j	1068c <_vfprintf_r+0x310>
   11d3c:	09812403          	lw	s0,152(sp)
   11d40:	0c013783          	ld	a5,192(sp)
   11d44:	0b812703          	lw	a4,184(sp)
   11d48:	000b0893          	mv	a7,s6
   11d4c:	be9ff06f          	j	11934 <_vfprintf_r+0x15b8>
				  cp = buf;
			} else
# endif /* _WANT_IO_C99_FORMATS */
			if (prec == -1) {
				prec = DEFPREC;
			} else if ((ch == 'g' || ch == 'G') && prec == 0) {
   11d50:	9e0410e3          	bnez	s0,11730 <_vfprintf_r+0x13b4>
				prec = 1;
   11d54:	00090413          	mv	s0,s2
   11d58:	9d9ff06f          	j	11730 <_vfprintf_r+0x13b4>
				else
				  cp = buf;
			} else
# endif /* _WANT_IO_C99_FORMATS */
			if (prec == -1) {
				prec = DEFPREC;
   11d5c:	00600413          	li	s0,6
   11d60:	9d1ff06f          	j	11730 <_vfprintf_r+0x13b4>
			ndigits++;
		}
		mode = 2;		/* ndigits significant digits */
	}

	digits = _DTOA_R (data, value, mode, ndigits, decpt, &dsgn, &rve);
   11d64:	228405d3          	fmv.d	fa1,fs0
   11d68:	09810713          	addi	a4,sp,152
   11d6c:	0a810813          	addi	a6,sp,168
   11d70:	09c10793          	addi	a5,sp,156
   11d74:	00040693          	mv	a3,s0
   11d78:	00300613          	li	a2,3
   11d7c:	000b8513          	mv	a0,s7
   11d80:	01113423          	sd	a7,8(sp)
   11d84:	14d000ef          	jal	126d0 <_dtoa_r>
   11d88:	00813883          	ld	a7,8(sp)

	if ((ch != 'g' && ch != 'G') || flags & ALT) {	/* Print trailing zeros */
		bp = digits + ndigits;
   11d8c:	00040713          	mv	a4,s0
			ndigits++;
		}
		mode = 2;		/* ndigits significant digits */
	}

	digits = _DTOA_R (data, value, mode, ndigits, decpt, &dsgn, &rve);
   11d90:	00050913          	mv	s2,a0

	if ((ch != 'g' && ch != 'G') || flags & ALT) {	/* Print trailing zeros */
		bp = digits + ndigits;
   11d94:	00e50733          	add	a4,a0,a4
   11d98:	00040593          	mv	a1,s0
		if (ch == 'f' || ch == 'F') {
			if (*digits == '0' && value)
   11d9c:	00094683          	lbu	a3,0(s2)
   11da0:	03000793          	li	a5,48
   11da4:	14f68063          	beq	a3,a5,11ee4 <_vfprintf_r+0x1b68>
   11da8:	09812583          	lw	a1,152(sp)
				*decpt = -ndigits + 1;
			bp += *decpt;
   11dac:	00b70733          	add	a4,a4,a1
   11db0:	a01ff06f          	j	117b0 <_vfprintf_r+0x1434>
# ifdef _NO_LONGDBL
	union double_union tmp;

	tmp.d = value;
	if (word0 (tmp) & Sign_bit) { /* this will check for < 0 and -0.0 */
		value = -value;
   11db4:	22841453          	fneg.d	fs0,fs0
		*sign = '-';
   11db8:	02d00c93          	li	s9,45
   11dbc:	991ff06f          	j	1174c <_vfprintf_r+0x13d0>
					size = expt;
					if (flags & ALT)
						++size;
				} else
					size = ndig + (expt > 0 ?
						1 : 2 - expt);
   11dc0:	04c12703          	lw	a4,76(sp)
   11dc4:	00100793          	li	a5,1
   11dc8:	1ae05263          	blez	a4,11f6c <_vfprintf_r+0x1bf0>
				} else if (expt >= ndig) { /* fixed g fmt */
					size = expt;
					if (flags & ALT)
						++size;
				} else
					size = ndig + (expt > 0 ?
   11dcc:	07012703          	lw	a4,112(sp)
   11dd0:	00e787bb          	addw	a5,a5,a4
   11dd4:	02f12023          	sw	a5,32(sp)
   11dd8:	0007ce63          	bltz	a5,11df4 <_vfprintf_r+0x1a78>
   11ddc:	06700d13          	li	s10,103
   11de0:	a51ff06f          	j	11830 <_vfprintf_r+0x14b4>
							  ? prec + 2
							  : 1;
				} else if (expt >= ndig) { /* fixed g fmt */
					size = expt;
					if (flags & ALT)
						++size;
   11de4:	04c12783          	lw	a5,76(sp)
   11de8:	0017879b          	addiw	a5,a5,1
   11dec:	02f12023          	sw	a5,32(sp)
   11df0:	fe07d6e3          	bgez	a5,11ddc <_vfprintf_r+0x1a60>
   11df4:	00000793          	li	a5,0
				} else
					size = ndig + (expt > 0 ?
   11df8:	06700d13          	li	s10,103
   11dfc:	a35ff06f          	j	11830 <_vfprintf_r+0x14b4>
# ifdef _WANT_IO_C99_FORMATS
				flags &= ~GROUPING;
# endif
			} else {
				if (ch == 'f') {		/* f fmt */
					if (expt > 0) {
   11e00:	09812783          	lw	a5,152(sp)
   11e04:	04f12623          	sw	a5,76(sp)
   11e08:	12f05263          	blez	a5,11f2c <_vfprintf_r+0x1bb0>
						size = expt;
						if (prec || flags & ALT)
   11e0c:	0a041e63          	bnez	s0,11ec8 <_vfprintf_r+0x1b4c>
   11e10:	001c7c13          	andi	s8,s8,1
   11e14:	0a0c1a63          	bnez	s8,11ec8 <_vfprintf_r+0x1b4c>
   11e18:	02f12023          	sw	a5,32(sp)
   11e1c:	a15ff06f          	j	11830 <_vfprintf_r+0x14b4>
		*p++ = '-';
	}
	else
		*p++ = '+';
	t = expbuf + MAXEXPLEN;
	if (exp > 9) {
   11e20:	0af10593          	addi	a1,sp,175
   11e24:	00058713          	mv	a4,a1
		do {
			*--t = to_char (exp % 10);
   11e28:	00a00513          	li	a0,10
   11e2c:	02a7e6bb          	remw	a3,a5,a0
   11e30:	fff70713          	addi	a4,a4,-1
		} while ((exp /= 10) > 9);
   11e34:	02a7c7bb          	divw	a5,a5,a0
	else
		*p++ = '+';
	t = expbuf + MAXEXPLEN;
	if (exp > 9) {
		do {
			*--t = to_char (exp % 10);
   11e38:	0306869b          	addiw	a3,a3,48
   11e3c:	00d70023          	sb	a3,0(a4)
		} while ((exp /= 10) > 9);
   11e40:	fef646e3          	blt	a2,a5,11e2c <_vfprintf_r+0x1ab0>
		*--t = to_char (exp);
   11e44:	0307879b          	addiw	a5,a5,48
   11e48:	0ff7f793          	andi	a5,a5,255
   11e4c:	fff70693          	addi	a3,a4,-1
   11e50:	fef70fa3          	sb	a5,-1(a4)
		for (; t < expbuf + MAXEXPLEN; *p++ = *t++);
   11e54:	16b6f863          	bleu	a1,a3,11fc4 <_vfprintf_r+0x1c48>
   11e58:	0a210613          	addi	a2,sp,162
   11e5c:	0080006f          	j	11e64 <_vfprintf_r+0x1ae8>
   11e60:	0006c783          	lbu	a5,0(a3)
   11e64:	00160613          	addi	a2,a2,1
   11e68:	00168693          	addi	a3,a3,1
   11e6c:	fef60fa3          	sb	a5,-1(a2)
   11e70:	feb698e3          	bne	a3,a1,11e60 <_vfprintf_r+0x1ae4>
   11e74:	0b010793          	addi	a5,sp,176
   11e78:	40e787b3          	sub	a5,a5,a4
   11e7c:	0a210713          	addi	a4,sp,162
   11e80:	00f707b3          	add	a5,a4,a5
   11e84:	e4dff06f          	j	11cd0 <_vfprintf_r+0x1954>
			ndigits++;
		}
		mode = 2;		/* ndigits significant digits */
	}

	digits = _DTOA_R (data, value, mode, ndigits, decpt, &dsgn, &rve);
   11e88:	228405d3          	fmv.d	fa1,fs0
   11e8c:	0a810813          	addi	a6,sp,168
   11e90:	09c10793          	addi	a5,sp,156
   11e94:	09810713          	addi	a4,sp,152
   11e98:	00040693          	mv	a3,s0
   11e9c:	00300613          	li	a2,3
   11ea0:	000b8513          	mv	a0,s7
   11ea4:	01113423          	sd	a7,8(sp)
   11ea8:	029000ef          	jal	126d0 <_dtoa_r>
   11eac:	00813883          	ld	a7,8(sp)
   11eb0:	00050913          	mv	s2,a0
   11eb4:	00040593          	mv	a1,s0

	if ((ch != 'g' && ch != 'G') || flags & ALT) {	/* Print trailing zeros */
		bp = digits + ndigits;
		if (ch == 'f' || ch == 'F') {
   11eb8:	04600793          	li	a5,70
	}

	digits = _DTOA_R (data, value, mode, ndigits, decpt, &dsgn, &rve);

	if ((ch != 'g' && ch != 'G') || flags & ALT) {	/* Print trailing zeros */
		bp = digits + ndigits;
   11ebc:	00b90733          	add	a4,s2,a1
		if (ch == 'f' || ch == 'F') {
   11ec0:	ecfd0ee3          	beq	s10,a5,11d9c <_vfprintf_r+0x1a20>
   11ec4:	8edff06f          	j	117b0 <_vfprintf_r+0x1434>
			} else {
				if (ch == 'f') {		/* f fmt */
					if (expt > 0) {
						size = expt;
						if (prec || flags & ALT)
							size += prec + 1;
   11ec8:	04c12783          	lw	a5,76(sp)
   11ecc:	0014041b          	addiw	s0,s0,1
   11ed0:	008787bb          	addw	a5,a5,s0
   11ed4:	02f12023          	sw	a5,32(sp)
   11ed8:	9407dce3          	bgez	a5,11830 <_vfprintf_r+0x14b4>
   11edc:	00000793          	li	a5,0
					} else	/* "0.X" */
						size = (prec || flags & ALT)
							  ? prec + 2
							  : 1;
   11ee0:	951ff06f          	j	11830 <_vfprintf_r+0x14b4>
	digits = _DTOA_R (data, value, mode, ndigits, decpt, &dsgn, &rve);

	if ((ch != 'g' && ch != 'G') || flags & ALT) {	/* Print trailing zeros */
		bp = digits + ndigits;
		if (ch == 'f' || ch == 'F') {
			if (*digits == '0' && value)
   11ee4:	f20007d3          	fmv.d.x	fa5,zero
   11ee8:	a2f427d3          	feq.d	a5,fs0,fa5
   11eec:	ea079ee3          	bnez	a5,11da8 <_vfprintf_r+0x1a2c>
				*decpt = -ndigits + 1;
   11ef0:	00100793          	li	a5,1
   11ef4:	40b785bb          	subw	a1,a5,a1
   11ef8:	08b12c23          	sw	a1,152(sp)
			bp += *decpt;
   11efc:	00b70733          	add	a4,a4,a1
   11f00:	8b1ff06f          	j	117b0 <_vfprintf_r+0x1434>
   11f04:	00000d93          	li	s11,0
   11f08:	ccdff06f          	j	11bd4 <_vfprintf_r+0x1858>
						fmt = old_fmt;
						goto rflag;
					}
				}
#endif /* !_NO_POS_ARGS */
				prec = GET_ARG (n, ap, int);
   11f0c:	02813783          	ld	a5,40(sp)
   11f10:	0007a403          	lw	s0,0(a5)
   11f14:	00878793          	addi	a5,a5,8
   11f18:	02f13423          	sd	a5,40(sp)
#ifndef _NO_POS_ARGS
				is_pos_arg = old_is_pos_arg;
#endif
				if (prec < 0)
   11f1c:	00044463          	bltz	s0,11f24 <_vfprintf_r+0x1ba8>
   11f20:	e18fe06f          	j	10538 <_vfprintf_r+0x1bc>
					prec = -1;
   11f24:	fff00413          	li	s0,-1
   11f28:	e10fe06f          	j	10538 <_vfprintf_r+0x1bc>
						if (prec || flags & ALT)
							size += prec + 1;
					} else	/* "0.X" */
						size = (prec || flags & ALT)
							  ? prec + 2
							  : 1;
   11f2c:	00041a63          	bnez	s0,11f40 <_vfprintf_r+0x1bc4>
   11f30:	00100793          	li	a5,1
					if (expt > 0) {
						size = expt;
						if (prec || flags & ALT)
							size += prec + 1;
					} else	/* "0.X" */
						size = (prec || flags & ALT)
   11f34:	00fc7c33          	and	s8,s8,a5
							  ? prec + 2
							  : 1;
   11f38:	02f12023          	sw	a5,32(sp)
					if (expt > 0) {
						size = expt;
						if (prec || flags & ALT)
							size += prec + 1;
					} else	/* "0.X" */
						size = (prec || flags & ALT)
   11f3c:	8e0c0ae3          	beqz	s8,11830 <_vfprintf_r+0x14b4>
							  ? prec + 2
							  : 1;
   11f40:	0024079b          	addiw	a5,s0,2
   11f44:	02f12023          	sw	a5,32(sp)
   11f48:	8e07d4e3          	bgez	a5,11830 <_vfprintf_r+0x14b4>
   11f4c:	f91ff06f          	j	11edc <_vfprintf_r+0x1b60>
# endif
			if (ch <= 'e') {	/* 'a', 'A', 'e', or 'E' fmt */
				--expt;
				expsize = exponent (expstr, expt, ch);
				size = expsize + ndig;
				if (ndig > 1 || flags & ALT)
   11f50:	00fc7c33          	and	s8,s8,a5
   11f54:	d80c1ee3          	bnez	s8,11cf0 <_vfprintf_r+0x1974>
   11f58:	02012703          	lw	a4,32(sp)
   11f5c:	00070793          	mv	a5,a4
   11f60:	da0750e3          	bgez	a4,11d00 <_vfprintf_r+0x1984>
   11f64:	00000793          	li	a5,0
   11f68:	d99ff06f          	j	11d00 <_vfprintf_r+0x1984>
					size = expt;
					if (flags & ALT)
						++size;
				} else
					size = ndig + (expt > 0 ?
						1 : 2 - expt);
   11f6c:	00200793          	li	a5,2
   11f70:	40e787bb          	subw	a5,a5,a4
   11f74:	e59ff06f          	j	11dcc <_vfprintf_r+0x1a50>

	p = p0;
	*p++ = isa ? 'p' - 'a' + fmtch : fmtch;
	if (exp < 0) {
		exp = -exp;
		*p++ = '-';
   11f78:	02d00713          	li	a4,45
# endif

	p = p0;
	*p++ = isa ? 'p' - 'a' + fmtch : fmtch;
	if (exp < 0) {
		exp = -exp;
   11f7c:	40f007bb          	negw	a5,a5
		*p++ = '-';
   11f80:	0ae100a3          	sb	a4,161(sp)
   11f84:	d31ff06f          	j	11cb4 <_vfprintf_r+0x1938>
   11f88:	08b107a3          	sb	a1,143(sp)
   11f8c:	ed9fe06f          	j	10e64 <_vfprintf_r+0xae8>
   11f90:	00000793          	li	a5,0
   11f94:	891ff06f          	j	11824 <_vfprintf_r+0x14a8>
   11f98:	08b107a3          	sb	a1,143(sp)
				size = 1;
			}
			sign = '\0';
			break;
		case 'D':  /* extension */
			flags |= LONGINT;
   11f9c:	010c6c13          	ori	s8,s8,16
   11fa0:	f2dfe06f          	j	10ecc <_vfprintf_r+0xb50>
   11fa4:	08b107a3          	sb	a1,143(sp)
   11fa8:	ef5fe06f          	j	10e9c <_vfprintf_r+0xb20>
   11fac:	09812783          	lw	a5,152(sp)
   11fb0:	cedff06f          	j	11c9c <_vfprintf_r+0x1920>
   11fb4:	08b107a3          	sb	a1,143(sp)
   11fb8:	e2dfe06f          	j	10de4 <_vfprintf_r+0xa68>
   11fbc:	08b107a3          	sb	a1,143(sp)
   11fc0:	dd5fe06f          	j	10d94 <_vfprintf_r+0xa18>
	if (exp > 9) {
		do {
			*--t = to_char (exp % 10);
		} while ((exp /= 10) > 9);
		*--t = to_char (exp);
		for (; t < expbuf + MAXEXPLEN; *p++ = *t++);
   11fc4:	0a210793          	addi	a5,sp,162
   11fc8:	d09ff06f          	j	11cd0 <_vfprintf_r+0x1954>
   11fcc:	08b107a3          	sb	a1,143(sp)
   11fd0:	f41fe06f          	j	10f10 <_vfprintf_r+0xb94>
   11fd4:	08b107a3          	sb	a1,143(sp)
   11fd8:	f28fe06f          	j	10700 <_vfprintf_r+0x384>
   11fdc:	08b107a3          	sb	a1,143(sp)
   11fe0:	9c5fe06f          	j	109a4 <_vfprintf_r+0x628>
   11fe4:	08b107a3          	sb	a1,143(sp)
			} else
				size = strlen (cp);

			break;
		case 'U': /* extension */
			flags |= LONGINT;
   11fe8:	010c6c13          	ori	s8,s8,16
   11fec:	979fe06f          	j	10964 <_vfprintf_r+0x5e8>
   11ff0:	08b107a3          	sb	a1,143(sp)
#endif
			else
				*GET_ARG (N, ap, int_ptr_t) = ret;
			continue;	/* no output */
		case 'O': /* extension */
			flags |= LONGINT;
   11ff4:	010c6c13          	ori	s8,s8,16
   11ff8:	929fe06f          	j	10920 <_vfprintf_r+0x5a4>
   11ffc:	08b107a3          	sb	a1,143(sp)
   12000:	881fe06f          	j	10880 <_vfprintf_r+0x504>

0000000000012004 <vfprintf>:
       FILE * fp         _AND
       _CONST char *fmt0 _AND
       va_list ap)
{
  int result;
  result = _VFPRINTF_R (_REENT, fp, fmt0, ap);
   12004:	00060693          	mv	a3,a2
   12008:	00058613          	mv	a2,a1
   1200c:	00050593          	mv	a1,a0
   12010:	8101b503          	ld	a0,-2032(gp) # 1b2e0 <_impure_ptr>
   12014:	b68fe06f          	j	1037c <_vfprintf_r>

0000000000012018 <__sbprintf>:
	int ret;
	FILE fake;
	unsigned char buf[BUFSIZ];

	/* copy the important variables */
	fake._flags = fp->_flags & ~__SNBF;
   12018:	0105d783          	lhu	a5,16(a1)
	fake._flags2 = fp->_flags2;
   1201c:	0ac5ae03          	lw	t3,172(a1)
	fake._file = fp->_file;
   12020:	0125d303          	lhu	t1,18(a1)
	fake._cookie = fp->_cookie;
   12024:	0305b883          	ld	a7,48(a1)
	fake._write = fp->_write;
   12028:	0405b803          	ld	a6,64(a1)
_DEFUN(__sbprintf, (rptr, fp, fmt, ap),
       struct _reent *rptr _AND
       register FILE *fp   _AND
       _CONST char *fmt  _AND
       va_list ap)
{
   1202c:	b3010113          	addi	sp,sp,-1232
	int ret;
	FILE fake;
	unsigned char buf[BUFSIZ];

	/* copy the important variables */
	fake._flags = fp->_flags & ~__SNBF;
   12030:	ffd7f793          	andi	a5,a5,-3
	fake._cookie = fp->_cookie;
	fake._write = fp->_write;

	/* set up the buffer */
	fake._bf._base = fake._p = buf;
	fake._bf._size = fake._w = sizeof (buf);
   12034:	40000713          	li	a4,1024
_DEFUN(__sbprintf, (rptr, fp, fmt, ap),
       struct _reent *rptr _AND
       register FILE *fp   _AND
       _CONST char *fmt  _AND
       va_list ap)
{
   12038:	4c813023          	sd	s0,1216(sp)
	int ret;
	FILE fake;
	unsigned char buf[BUFSIZ];

	/* copy the important variables */
	fake._flags = fp->_flags & ~__SNBF;
   1203c:	00f11823          	sh	a5,16(sp)
_DEFUN(__sbprintf, (rptr, fp, fmt, ap),
       struct _reent *rptr _AND
       register FILE *fp   _AND
       _CONST char *fmt  _AND
       va_list ap)
{
   12040:	00058413          	mv	s0,a1
	fake._file = fp->_file;
	fake._cookie = fp->_cookie;
	fake._write = fp->_write;

	/* set up the buffer */
	fake._bf._base = fake._p = buf;
   12044:	0b010793          	addi	a5,sp,176
#ifndef __SINGLE_THREAD__
	__lock_init_recursive (fake._lock);
#endif

	/* do the work, then copy any error status */
	ret = _VFPRINTF_R (rptr, &fake, fmt, ap);
   12048:	00010593          	mv	a1,sp
_DEFUN(__sbprintf, (rptr, fp, fmt, ap),
       struct _reent *rptr _AND
       register FILE *fp   _AND
       _CONST char *fmt  _AND
       va_list ap)
{
   1204c:	4a913c23          	sd	s1,1208(sp)
   12050:	4b213823          	sd	s2,1200(sp)
   12054:	4c113423          	sd	ra,1224(sp)
   12058:	00050913          	mv	s2,a0
	FILE fake;
	unsigned char buf[BUFSIZ];

	/* copy the important variables */
	fake._flags = fp->_flags & ~__SNBF;
	fake._flags2 = fp->_flags2;
   1205c:	0bc12623          	sw	t3,172(sp)
	fake._file = fp->_file;
   12060:	00611923          	sh	t1,18(sp)
	fake._cookie = fp->_cookie;
   12064:	03113823          	sd	a7,48(sp)
	fake._write = fp->_write;
   12068:	05013023          	sd	a6,64(sp)

	/* set up the buffer */
	fake._bf._base = fake._p = buf;
   1206c:	00f13023          	sd	a5,0(sp)
   12070:	00f13c23          	sd	a5,24(sp)
	fake._bf._size = fake._w = sizeof (buf);
   12074:	00e12623          	sw	a4,12(sp)
   12078:	02e12023          	sw	a4,32(sp)
	fake._lbfsize = 0;	/* not actually used, but Just In Case */
   1207c:	02012423          	sw	zero,40(sp)
#ifndef __SINGLE_THREAD__
	__lock_init_recursive (fake._lock);
#endif

	/* do the work, then copy any error status */
	ret = _VFPRINTF_R (rptr, &fake, fmt, ap);
   12080:	afcfe0ef          	jal	1037c <_vfprintf_r>
   12084:	00050493          	mv	s1,a0
	if (ret >= 0 && _fflush_r (rptr, &fake))
   12088:	00054a63          	bltz	a0,1209c <__sbprintf+0x84>
   1208c:	00010593          	mv	a1,sp
   12090:	00090513          	mv	a0,s2
   12094:	1a5010ef          	jal	13a38 <_fflush_r>
   12098:	02051c63          	bnez	a0,120d0 <__sbprintf+0xb8>
		ret = EOF;
	if (fake._flags & __SERR)
   1209c:	01015783          	lhu	a5,16(sp)
   120a0:	0407f793          	andi	a5,a5,64
   120a4:	00078863          	beqz	a5,120b4 <__sbprintf+0x9c>
		fp->_flags |= __SERR;
   120a8:	01045783          	lhu	a5,16(s0)
   120ac:	0407e793          	ori	a5,a5,64
   120b0:	00f41823          	sh	a5,16(s0)

#ifndef __SINGLE_THREAD__
	__lock_close_recursive (fake._lock);
#endif
	return (ret);
}
   120b4:	4c813083          	ld	ra,1224(sp)
   120b8:	00048513          	mv	a0,s1
   120bc:	4c013403          	ld	s0,1216(sp)
   120c0:	4b813483          	ld	s1,1208(sp)
   120c4:	4b013903          	ld	s2,1200(sp)
   120c8:	4d010113          	addi	sp,sp,1232
   120cc:	00008067          	ret
#endif

	/* do the work, then copy any error status */
	ret = _VFPRINTF_R (rptr, &fake, fmt, ap);
	if (ret >= 0 && _fflush_r (rptr, &fake))
		ret = EOF;
   120d0:	fff00493          	li	s1,-1
   120d4:	fc9ff06f          	j	1209c <__sbprintf+0x84>

00000000000120d8 <__swsetup_r>:
       struct _reent *ptr _AND
       register FILE * fp)
{
  /* Make sure stdio is set up.  */

  CHECK_INIT (_REENT, fp);
   120d8:	8101b783          	ld	a5,-2032(gp) # 1b2e0 <_impure_ptr>

int
_DEFUN(__swsetup_r, (ptr, fp),
       struct _reent *ptr _AND
       register FILE * fp)
{
   120dc:	fe010113          	addi	sp,sp,-32
   120e0:	00813823          	sd	s0,16(sp)
   120e4:	00913423          	sd	s1,8(sp)
   120e8:	00113c23          	sd	ra,24(sp)
   120ec:	00050493          	mv	s1,a0
   120f0:	00058413          	mv	s0,a1
  /* Make sure stdio is set up.  */

  CHECK_INIT (_REENT, fp);
   120f4:	00078663          	beqz	a5,12100 <__swsetup_r+0x28>
   120f8:	0507a703          	lw	a4,80(a5)
   120fc:	0e070063          	beqz	a4,121dc <__swsetup_r+0x104>

  /*
   * If we are not writing, we had better be reading and writing.
   */

  if ((fp->_flags & __SWR) == 0)
   12100:	01041703          	lh	a4,16(s0)
   12104:	03071793          	slli	a5,a4,0x30
   12108:	0307d793          	srli	a5,a5,0x30
   1210c:	0087f693          	andi	a3,a5,8
   12110:	04068263          	beqz	a3,12154 <__swsetup_r+0x7c>
   12114:	01843683          	ld	a3,24(s0)
  /*
   * Make a buffer if necessary, then set _w.
   * A string I/O file should not explicitly allocate a buffer
   * unless asprintf is being used.
   */
  if (fp->_bf._base == NULL
   12118:	06068663          	beqz	a3,12184 <__swsetup_r+0xac>
        && (!(fp->_flags & __SSTR) || (fp->_flags & __SMBF)))
    __smakebuf_r (ptr, fp);

  if (fp->_flags & __SLBF)
   1211c:	0017f713          	andi	a4,a5,1
   12120:	08071463          	bnez	a4,121a8 <__swsetup_r+0xd0>
       */
      fp->_w = 0;
      fp->_lbfsize = -fp->_bf._size;
    }
  else
    fp->_w = fp->_flags & __SNBF ? 0 : fp->_bf._size;
   12124:	0027f793          	andi	a5,a5,2
   12128:	00000713          	li	a4,0
   1212c:	00079463          	bnez	a5,12134 <__swsetup_r+0x5c>
   12130:	02042703          	lw	a4,32(s0)
   12134:	00e42623          	sw	a4,12(s0)
    {
      /* __smakebuf_r set errno, but not flag */
      fp->_flags |= __SERR;
      return EOF;
    }
  return 0;
   12138:	00000513          	li	a0,0
      fp->_lbfsize = -fp->_bf._size;
    }
  else
    fp->_w = fp->_flags & __SNBF ? 0 : fp->_bf._size;

  if (!fp->_bf._base && (fp->_flags & __SMBF))
   1213c:	08068263          	beqz	a3,121c0 <__swsetup_r+0xe8>
      /* __smakebuf_r set errno, but not flag */
      fp->_flags |= __SERR;
      return EOF;
    }
  return 0;
}
   12140:	01813083          	ld	ra,24(sp)
   12144:	01013403          	ld	s0,16(sp)
   12148:	00813483          	ld	s1,8(sp)
   1214c:	02010113          	addi	sp,sp,32
   12150:	00008067          	ret
   * If we are not writing, we had better be reading and writing.
   */

  if ((fp->_flags & __SWR) == 0)
    {
      if ((fp->_flags & __SRW) == 0)
   12154:	0107f693          	andi	a3,a5,16
   12158:	0c068663          	beqz	a3,12224 <__swsetup_r+0x14c>
        {
	  ptr->_errno = EBADF;
	  fp->_flags |= __SERR;
	  return EOF;
        }
      if (fp->_flags & __SRD)
   1215c:	0047f793          	andi	a5,a5,4
   12160:	08079463          	bnez	a5,121e8 <__swsetup_r+0x110>
   12164:	01843683          	ld	a3,24(s0)
	    FREEUB (ptr, fp);
	  fp->_flags &= ~(__SRD | __SEOF);
	  fp->_r = 0;
	  fp->_p = fp->_bf._base;
	}
      fp->_flags |= __SWR;
   12168:	00876793          	ori	a5,a4,8
   1216c:	0107979b          	slliw	a5,a5,0x10
   12170:	4107d79b          	sraiw	a5,a5,0x10
   12174:	00f41823          	sh	a5,16(s0)
   12178:	03079793          	slli	a5,a5,0x30
   1217c:	0307d793          	srli	a5,a5,0x30
  /*
   * Make a buffer if necessary, then set _w.
   * A string I/O file should not explicitly allocate a buffer
   * unless asprintf is being used.
   */
  if (fp->_bf._base == NULL
   12180:	f8069ee3          	bnez	a3,1211c <__swsetup_r+0x44>
        && (!(fp->_flags & __SSTR) || (fp->_flags & __SMBF)))
   12184:	2807f713          	andi	a4,a5,640
   12188:	20000613          	li	a2,512
   1218c:	f8c708e3          	beq	a4,a2,1211c <__swsetup_r+0x44>
    __smakebuf_r (ptr, fp);
   12190:	00040593          	mv	a1,s0
   12194:	00048513          	mv	a0,s1
   12198:	2ec020ef          	jal	14484 <__smakebuf_r>
   1219c:	01045783          	lhu	a5,16(s0)
   121a0:	01843683          	ld	a3,24(s0)
   121a4:	f79ff06f          	j	1211c <__swsetup_r+0x44>
       * It is line buffered, so make _lbfsize be -_bufsize
       * for the putc() macro.  We will change _lbfsize back
       * to 0 whenever we turn off __SWR.
       */
      fp->_w = 0;
      fp->_lbfsize = -fp->_bf._size;
   121a8:	02042783          	lw	a5,32(s0)
      /*
       * It is line buffered, so make _lbfsize be -_bufsize
       * for the putc() macro.  We will change _lbfsize back
       * to 0 whenever we turn off __SWR.
       */
      fp->_w = 0;
   121ac:	00042623          	sw	zero,12(s0)
    {
      /* __smakebuf_r set errno, but not flag */
      fp->_flags |= __SERR;
      return EOF;
    }
  return 0;
   121b0:	00000513          	li	a0,0
       * It is line buffered, so make _lbfsize be -_bufsize
       * for the putc() macro.  We will change _lbfsize back
       * to 0 whenever we turn off __SWR.
       */
      fp->_w = 0;
      fp->_lbfsize = -fp->_bf._size;
   121b4:	40f007bb          	negw	a5,a5
   121b8:	02f42423          	sw	a5,40(s0)
    }
  else
    fp->_w = fp->_flags & __SNBF ? 0 : fp->_bf._size;

  if (!fp->_bf._base && (fp->_flags & __SMBF))
   121bc:	f80692e3          	bnez	a3,12140 <__swsetup_r+0x68>
   121c0:	01041783          	lh	a5,16(s0)
   121c4:	0807f713          	andi	a4,a5,128
   121c8:	f6070ce3          	beqz	a4,12140 <__swsetup_r+0x68>
    {
      /* __smakebuf_r set errno, but not flag */
      fp->_flags |= __SERR;
   121cc:	0407e793          	ori	a5,a5,64
   121d0:	00f41823          	sh	a5,16(s0)
      return EOF;
   121d4:	fff00513          	li	a0,-1
   121d8:	f69ff06f          	j	12140 <__swsetup_r+0x68>
       struct _reent *ptr _AND
       register FILE * fp)
{
  /* Make sure stdio is set up.  */

  CHECK_INIT (_REENT, fp);
   121dc:	00078513          	mv	a0,a5
   121e0:	405010ef          	jal	13de4 <__sinit>
   121e4:	f1dff06f          	j	12100 <__swsetup_r+0x28>
	  return EOF;
        }
      if (fp->_flags & __SRD)
	{
	  /* clobber any ungetc data */
	  if (HASUB (fp))
   121e8:	05843583          	ld	a1,88(s0)
   121ec:	00058e63          	beqz	a1,12208 <__swsetup_r+0x130>
	    FREEUB (ptr, fp);
   121f0:	07440793          	addi	a5,s0,116
   121f4:	00f58863          	beq	a1,a5,12204 <__swsetup_r+0x12c>
   121f8:	00048513          	mv	a0,s1
   121fc:	541010ef          	jal	13f3c <_free_r>
   12200:	01041703          	lh	a4,16(s0)
   12204:	04043c23          	sd	zero,88(s0)
	  fp->_flags &= ~(__SRD | __SEOF);
	  fp->_r = 0;
	  fp->_p = fp->_bf._base;
   12208:	01843683          	ld	a3,24(s0)
      if (fp->_flags & __SRD)
	{
	  /* clobber any ungetc data */
	  if (HASUB (fp))
	    FREEUB (ptr, fp);
	  fp->_flags &= ~(__SRD | __SEOF);
   1220c:	fdb77713          	andi	a4,a4,-37
   12210:	0107171b          	slliw	a4,a4,0x10
   12214:	4107571b          	sraiw	a4,a4,0x10
	  fp->_r = 0;
   12218:	00042423          	sw	zero,8(s0)
	  fp->_p = fp->_bf._base;
   1221c:	00d43023          	sd	a3,0(s0)
   12220:	f49ff06f          	j	12168 <__swsetup_r+0x90>

  if ((fp->_flags & __SWR) == 0)
    {
      if ((fp->_flags & __SRW) == 0)
        {
	  ptr->_errno = EBADF;
   12224:	00900793          	li	a5,9
   12228:	00f4a023          	sw	a5,0(s1)
	  fp->_flags |= __SERR;
   1222c:	04076713          	ori	a4,a4,64
   12230:	00e41823          	sh	a4,16(s0)
	  return EOF;
   12234:	fff00513          	li	a0,-1
   12238:	f09ff06f          	j	12140 <__swsetup_r+0x68>

000000000001223c <__register_exitproc>:
	(type, fn, arg, d),
	int type _AND
	void (*fn) (void) _AND
	void *arg _AND
	void *d)
{
   1223c:	fd010113          	addi	sp,sp,-48
   12240:	02813023          	sd	s0,32(sp)

#ifndef __SINGLE_THREAD__
  __lock_acquire_recursive(__atexit_lock);
#endif

  p = _GLOBAL_ATEXIT;
   12244:	8081b403          	ld	s0,-2040(gp) # 1b2d8 <_global_impure_ptr>
	(type, fn, arg, d),
	int type _AND
	void (*fn) (void) _AND
	void *arg _AND
	void *d)
{
   12248:	00913c23          	sd	s1,24(sp)
   1224c:	00050493          	mv	s1,a0

#ifndef __SINGLE_THREAD__
  __lock_acquire_recursive(__atexit_lock);
#endif

  p = _GLOBAL_ATEXIT;
   12250:	1f843503          	ld	a0,504(s0)
	(type, fn, arg, d),
	int type _AND
	void (*fn) (void) _AND
	void *arg _AND
	void *d)
{
   12254:	01213823          	sd	s2,16(sp)
   12258:	01313423          	sd	s3,8(sp)
   1225c:	01413023          	sd	s4,0(sp)
   12260:	02113423          	sd	ra,40(sp)
   12264:	00058913          	mv	s2,a1
   12268:	00060a13          	mv	s4,a2
   1226c:	00068993          	mv	s3,a3
#ifndef __SINGLE_THREAD__
  __lock_acquire_recursive(__atexit_lock);
#endif

  p = _GLOBAL_ATEXIT;
  if (p == NULL)
   12270:	0c050663          	beqz	a0,1233c <__register_exitproc+0x100>
    _GLOBAL_ATEXIT = p = _GLOBAL_ATEXIT0;
  if (p->_ind >= _ATEXIT_SIZE)
   12274:	00852703          	lw	a4,8(a0)
   12278:	01f00793          	li	a5,31
   1227c:	0017059b          	addiw	a1,a4,1
   12280:	04e7d063          	ble	a4,a5,122c0 <__register_exitproc+0x84>
#ifndef _ATEXIT_DYNAMIC_ALLOC
      return -1;
#else
      /* Don't dynamically allocate the atexit array if malloc is not
	 available.  */
      if (!malloc)
   12284:	000007b7          	lui	a5,0x0
   12288:	00078793          	mv	a5,a5
   1228c:	0a078e63          	beqz	a5,12348 <__register_exitproc+0x10c>
	return -1;

      p = (struct _atexit *) malloc (sizeof *p);
   12290:	31800513          	li	a0,792
   12294:	fffee317          	auipc	t1,0xfffee
   12298:	d6c300e7          	jalr	t1,-660 # 0 <_ftext-0x10000>
      if (p == NULL)
   1229c:	0a050663          	beqz	a0,12348 <__register_exitproc+0x10c>
	  __lock_release_recursive(__atexit_lock);
#endif
	  return -1;
	}
      p->_ind = 0;
      p->_next = _GLOBAL_ATEXIT;
   122a0:	1f843783          	ld	a5,504(s0)
#ifndef __SINGLE_THREAD__
	  __lock_release_recursive(__atexit_lock);
#endif
	  return -1;
	}
      p->_ind = 0;
   122a4:	00052423          	sw	zero,8(a0)
      p->_next = _GLOBAL_ATEXIT;
      _GLOBAL_ATEXIT = p;
#ifndef _REENT_SMALL
      p->_on_exit_args._fntypes = 0;
      p->_on_exit_args._is_cxa = 0;
   122a8:	00100593          	li	a1,1
	  __lock_release_recursive(__atexit_lock);
#endif
	  return -1;
	}
      p->_ind = 0;
      p->_next = _GLOBAL_ATEXIT;
   122ac:	00f53023          	sd	a5,0(a0)
      _GLOBAL_ATEXIT = p;
   122b0:	1ea43c23          	sd	a0,504(s0)
#ifndef _REENT_SMALL
      p->_on_exit_args._fntypes = 0;
   122b4:	30052823          	sw	zero,784(a0)
      p->_on_exit_args._is_cxa = 0;
   122b8:	30052a23          	sw	zero,788(a0)
   122bc:	00000713          	li	a4,0
   122c0:	00070793          	mv	a5,a4
      p->_on_exit_args_ptr = NULL;
#endif
#endif
    }

  if (type != __et_atexit)
   122c4:	02049e63          	bnez	s1,12300 <__register_exitproc+0xc4>
      args->_fntypes |= (1 << p->_ind);
      args->_dso_handle[p->_ind] = d;
      if (type == __et_cxa)
	args->_is_cxa |= (1 << p->_ind);
    }
  p->_fns[p->_ind++] = fn;
   122c8:	00278793          	addi	a5,a5,2 # 2 <_ftext-0xfffe>
   122cc:	00379793          	slli	a5,a5,0x3
   122d0:	00b52423          	sw	a1,8(a0)
   122d4:	00f50533          	add	a0,a0,a5
   122d8:	01253023          	sd	s2,0(a0)
#ifndef __SINGLE_THREAD__
  __lock_release_recursive(__atexit_lock);
#endif
  return 0;
   122dc:	00000513          	li	a0,0
}
   122e0:	02813083          	ld	ra,40(sp)
   122e4:	02013403          	ld	s0,32(sp)
   122e8:	01813483          	ld	s1,24(sp)
   122ec:	01013903          	ld	s2,16(sp)
   122f0:	00813983          	ld	s3,8(sp)
   122f4:	00013a03          	ld	s4,0(sp)
   122f8:	03010113          	addi	sp,sp,48
   122fc:	00008067          	ret
   12300:	00371813          	slli	a6,a4,0x3
   12304:	01050833          	add	a6,a0,a6
	  p->_on_exit_args_ptr = args;
	}
#else
      args = &p->_on_exit_args;
#endif
      args->_fnargs[p->_ind] = arg;
   12308:	11483823          	sd	s4,272(a6)
      args->_fntypes |= (1 << p->_ind);
   1230c:	31052883          	lw	a7,784(a0)
   12310:	00100613          	li	a2,1
   12314:	00e6173b          	sllw	a4,a2,a4
   12318:	00e8e633          	or	a2,a7,a4
   1231c:	30c52823          	sw	a2,784(a0)
      args->_dso_handle[p->_ind] = d;
   12320:	21383823          	sd	s3,528(a6)
      if (type == __et_cxa)
   12324:	00200693          	li	a3,2
   12328:	fad490e3          	bne	s1,a3,122c8 <__register_exitproc+0x8c>
	args->_is_cxa |= (1 << p->_ind);
   1232c:	31452683          	lw	a3,788(a0)
   12330:	00e6e733          	or	a4,a3,a4
   12334:	30e52a23          	sw	a4,788(a0)
   12338:	f91ff06f          	j	122c8 <__register_exitproc+0x8c>
  __lock_acquire_recursive(__atexit_lock);
#endif

  p = _GLOBAL_ATEXIT;
  if (p == NULL)
    _GLOBAL_ATEXIT = p = _GLOBAL_ATEXIT0;
   1233c:	20040513          	addi	a0,s0,512
   12340:	1ea43c23          	sd	a0,504(s0)
   12344:	f31ff06f          	j	12274 <__register_exitproc+0x38>
      return -1;
#else
      /* Don't dynamically allocate the atexit array if malloc is not
	 available.  */
      if (!malloc)
	return -1;
   12348:	fff00513          	li	a0,-1
   1234c:	f95ff06f          	j	122e0 <__register_exitproc+0xa4>

0000000000012350 <__call_exitprocs>:
 */

void 
_DEFUN (__call_exitprocs, (code, d),
	int code _AND _PTR d)
{
   12350:	fa010113          	addi	sp,sp,-96
   12354:	03413823          	sd	s4,48(sp)
   12358:	8081ba03          	ld	s4,-2040(gp) # 1b2d8 <_global_impure_ptr>
   1235c:	03313c23          	sd	s3,56(sp)
#ifndef _ATEXIT_DYNAMIC_ALLOC
      break;
#else
      /* Don't dynamically free the atexit array if free is not
	 available.  */
      if (!free)
   12360:	000009b7          	lui	s3,0x0
 */

void 
_DEFUN (__call_exitprocs, (code, d),
	int code _AND _PTR d)
{
   12364:	04913423          	sd	s1,72(sp)
   12368:	05213023          	sd	s2,64(sp)
   1236c:	03513423          	sd	s5,40(sp)
   12370:	01713c23          	sd	s7,24(sp)
   12374:	01813823          	sd	s8,16(sp)
   12378:	04113c23          	sd	ra,88(sp)
   1237c:	04813823          	sd	s0,80(sp)
   12380:	03613023          	sd	s6,32(sp)
   12384:	01913423          	sd	s9,8(sp)
   12388:	01a13023          	sd	s10,0(sp)
   1238c:	00050913          	mv	s2,a0
   12390:	00058b93          	mv	s7,a1
   12394:	1f8a0a93          	addi	s5,s4,504
	    continue;

	  ind = p->_ind;

	  /* Call the function.  */
	  if (!args || (args->_fntypes & i) == 0)
   12398:	00100493          	li	s1,1
#ifdef _REENT_SMALL
      args = p->_on_exit_args_ptr;
#else
      args = &p->_on_exit_args;
#endif
      for (n = p->_ind - 1; n >= 0; n--)
   1239c:	fff00c13          	li	s8,-1
#ifndef _ATEXIT_DYNAMIC_ALLOC
      break;
#else
      /* Don't dynamically free the atexit array if free is not
	 available.  */
      if (!free)
   123a0:	00098993          	mv	s3,s3
  __lock_acquire_recursive(__atexit_lock);
#endif

 restart:

  p = _GLOBAL_ATEXIT;
   123a4:	1f8a3b03          	ld	s6,504(s4)
  lastp = &_GLOBAL_ATEXIT;
  while (p)
   123a8:	0c0b0663          	beqz	s6,12474 <__call_exitprocs+0x124>
   123ac:	000a8d13          	mv	s10,s5
#ifdef _REENT_SMALL
      args = p->_on_exit_args_ptr;
#else
      args = &p->_on_exit_args;
#endif
      for (n = p->_ind - 1; n >= 0; n--)
   123b0:	008b2403          	lw	s0,8(s6)
   123b4:	fff4041b          	addiw	s0,s0,-1
   123b8:	02045263          	bgez	s0,123dc <__call_exitprocs+0x8c>
   123bc:	08c0006f          	j	12448 <__call_exitprocs+0xf8>
	  int ind;

	  i = 1 << n;

	  /* Skip functions not from this dso.  */
	  if (d && (!args || args->_dso_handle[n] != d))
   123c0:	02040793          	addi	a5,s0,32
   123c4:	00379793          	slli	a5,a5,0x3
   123c8:	00fb07b3          	add	a5,s6,a5
   123cc:	1107b783          	ld	a5,272(a5)
   123d0:	00fb8a63          	beq	s7,a5,123e4 <__call_exitprocs+0x94>
#ifdef _REENT_SMALL
      args = p->_on_exit_args_ptr;
#else
      args = &p->_on_exit_args;
#endif
      for (n = p->_ind - 1; n >= 0; n--)
   123d4:	fff4041b          	addiw	s0,s0,-1
   123d8:	07840863          	beq	s0,s8,12448 <__call_exitprocs+0xf8>
	  int ind;

	  i = 1 << n;

	  /* Skip functions not from this dso.  */
	  if (d && (!args || args->_dso_handle[n] != d))
   123dc:	00040713          	mv	a4,s0
   123e0:	fe0b90e3          	bnez	s7,123c0 <__call_exitprocs+0x70>
	    continue;

	  /* Remove the function now to protect against the
	     function calling exit recursively.  */
	  fn = p->_fns[n];
	  if (n == p->_ind - 1)
   123e4:	008b2783          	lw	a5,8(s6)
   123e8:	00371713          	slli	a4,a4,0x3
   123ec:	00eb0733          	add	a4,s6,a4
   123f0:	fff7879b          	addiw	a5,a5,-1
	  if (d && (!args || args->_dso_handle[n] != d))
	    continue;

	  /* Remove the function now to protect against the
	     function calling exit recursively.  */
	  fn = p->_fns[n];
   123f4:	01073683          	ld	a3,16(a4)
	  if (n == p->_ind - 1)
   123f8:	0a878e63          	beq	a5,s0,124b4 <__call_exitprocs+0x164>
	    p->_ind--;
	  else
	    p->_fns[n] = NULL;
   123fc:	00073823          	sd	zero,16(a4)

	  /* Skip functions that have already been called.  */
	  if (!fn)
   12400:	fc068ae3          	beqz	a3,123d4 <__call_exitprocs+0x84>
	    continue;

	  ind = p->_ind;

	  /* Call the function.  */
	  if (!args || (args->_fntypes & i) == 0)
   12404:	310b2783          	lw	a5,784(s6)
   12408:	0084963b          	sllw	a2,s1,s0

	  /* Skip functions that have already been called.  */
	  if (!fn)
	    continue;

	  ind = p->_ind;
   1240c:	008b2c83          	lw	s9,8(s6)

	  /* Call the function.  */
	  if (!args || (args->_fntypes & i) == 0)
   12410:	00f677b3          	and	a5,a2,a5
   12414:	08078c63          	beqz	a5,124ac <__call_exitprocs+0x15c>
	    fn ();
	  else if ((args->_is_cxa & i) == 0)
   12418:	314b2783          	lw	a5,788(s6)
   1241c:	00f67633          	and	a2,a2,a5
   12420:	08061e63          	bnez	a2,124bc <__call_exitprocs+0x16c>
	    (*((void (*)(int, _PTR)) fn))(code, args->_fnargs[n]);
   12424:	11073583          	ld	a1,272(a4)
   12428:	00090513          	mv	a0,s2
   1242c:	000680e7          	jalr	a3
	    (*((void (*)(_PTR)) fn))(args->_fnargs[n]);

	  /* The function we called call atexit and registered another
	     function (or functions).  Call these new functions before
	     continuing with the already registered functions.  */
	  if (ind != p->_ind || *lastp != p)
   12430:	008b2783          	lw	a5,8(s6)
   12434:	f79798e3          	bne	a5,s9,123a4 <__call_exitprocs+0x54>
   12438:	000d3783          	ld	a5,0(s10)
   1243c:	f76794e3          	bne	a5,s6,123a4 <__call_exitprocs+0x54>
#ifdef _REENT_SMALL
      args = p->_on_exit_args_ptr;
#else
      args = &p->_on_exit_args;
#endif
      for (n = p->_ind - 1; n >= 0; n--)
   12440:	fff4041b          	addiw	s0,s0,-1
   12444:	f9841ce3          	bne	s0,s8,123dc <__call_exitprocs+0x8c>
#ifndef _ATEXIT_DYNAMIC_ALLOC
      break;
#else
      /* Don't dynamically free the atexit array if free is not
	 available.  */
      if (!free)
   12448:	02098663          	beqz	s3,12474 <__call_exitprocs+0x124>
	break;

      /* Move to the next block.  Free empty blocks except the last one,
	 which is part of _GLOBAL_REENT.  */
      if (p->_ind == 0 && p->_next)
   1244c:	008b2783          	lw	a5,8(s6)
   12450:	06079c63          	bnez	a5,124c8 <__call_exitprocs+0x178>
   12454:	000b3783          	ld	a5,0(s6)
   12458:	08078263          	beqz	a5,124dc <__call_exitprocs+0x18c>
	  *lastp = p->_next;
#ifdef _REENT_SMALL
	  if (args)
	    free (args);
#endif
	  free (p);
   1245c:	000b0513          	mv	a0,s6
      /* Move to the next block.  Free empty blocks except the last one,
	 which is part of _GLOBAL_REENT.  */
      if (p->_ind == 0 && p->_next)
	{
	  /* Remove empty block from the list.  */
	  *lastp = p->_next;
   12460:	00fd3023          	sd	a5,0(s10)
#ifdef _REENT_SMALL
	  if (args)
	    free (args);
#endif
	  free (p);
   12464:	fffee317          	auipc	t1,0xfffee
   12468:	b9c300e7          	jalr	t1,-1124 # 0 <_ftext-0x10000>
	  p = *lastp;
   1246c:	000d3b03          	ld	s6,0(s10)

 restart:

  p = _GLOBAL_ATEXIT;
  lastp = &_GLOBAL_ATEXIT;
  while (p)
   12470:	f40b10e3          	bnez	s6,123b0 <__call_exitprocs+0x60>
    }
#ifndef __SINGLE_THREAD__
  __lock_release_recursive(__atexit_lock);
#endif

}
   12474:	05813083          	ld	ra,88(sp)
   12478:	05013403          	ld	s0,80(sp)
   1247c:	04813483          	ld	s1,72(sp)
   12480:	04013903          	ld	s2,64(sp)
   12484:	03813983          	ld	s3,56(sp)
   12488:	03013a03          	ld	s4,48(sp)
   1248c:	02813a83          	ld	s5,40(sp)
   12490:	02013b03          	ld	s6,32(sp)
   12494:	01813b83          	ld	s7,24(sp)
   12498:	01013c03          	ld	s8,16(sp)
   1249c:	00813c83          	ld	s9,8(sp)
   124a0:	00013d03          	ld	s10,0(sp)
   124a4:	06010113          	addi	sp,sp,96
   124a8:	00008067          	ret

	  ind = p->_ind;

	  /* Call the function.  */
	  if (!args || (args->_fntypes & i) == 0)
	    fn ();
   124ac:	000680e7          	jalr	a3
   124b0:	f81ff06f          	j	12430 <__call_exitprocs+0xe0>

	  /* Remove the function now to protect against the
	     function calling exit recursively.  */
	  fn = p->_fns[n];
	  if (n == p->_ind - 1)
	    p->_ind--;
   124b4:	008b2423          	sw	s0,8(s6)
   124b8:	f49ff06f          	j	12400 <__call_exitprocs+0xb0>
	  if (!args || (args->_fntypes & i) == 0)
	    fn ();
	  else if ((args->_is_cxa & i) == 0)
	    (*((void (*)(int, _PTR)) fn))(code, args->_fnargs[n]);
	  else
	    (*((void (*)(_PTR)) fn))(args->_fnargs[n]);
   124bc:	11073503          	ld	a0,272(a4)
   124c0:	000680e7          	jalr	a3
   124c4:	f6dff06f          	j	12430 <__call_exitprocs+0xe0>
   124c8:	000b3783          	ld	a5,0(s6)
	  free (p);
	  p = *lastp;
	}
      else
	{
	  lastp = &p->_next;
   124cc:	000b0d13          	mv	s10,s6
	  p = p->_next;
   124d0:	00078b13          	mv	s6,a5

 restart:

  p = _GLOBAL_ATEXIT;
  lastp = &_GLOBAL_ATEXIT;
  while (p)
   124d4:	ec0b1ee3          	bnez	s6,123b0 <__call_exitprocs+0x60>
   124d8:	f9dff06f          	j	12474 <__call_exitprocs+0x124>
   124dc:	00000793          	li	a5,0
   124e0:	fedff06f          	j	124cc <__call_exitprocs+0x17c>

00000000000124e4 <quorem>:

static int
_DEFUN (quorem,
	(b, S),
	_Bigint * b _AND _Bigint * S)
{
   124e4:	fc010113          	addi	sp,sp,-64
   124e8:	03213023          	sd	s2,32(sp)
  n = S->_wds;
#ifdef DEBUG
  /*debug*/ if (b->_wds > n)
    /*debug*/ Bug ("oversize b in quorem");
#endif
  if (b->_wds < n)
   124ec:	01452783          	lw	a5,20(a0)
#ifdef Pack_32
  __Long z;
  __ULong si, zs;
#endif

  n = S->_wds;
   124f0:	0145a903          	lw	s2,20(a1)

static int
_DEFUN (quorem,
	(b, S),
	_Bigint * b _AND _Bigint * S)
{
   124f4:	02113c23          	sd	ra,56(sp)
   124f8:	02813823          	sd	s0,48(sp)
   124fc:	02913423          	sd	s1,40(sp)
   12500:	01313c23          	sd	s3,24(sp)
   12504:	01413823          	sd	s4,16(sp)
   12508:	01513423          	sd	s5,8(sp)
  n = S->_wds;
#ifdef DEBUG
  /*debug*/ if (b->_wds > n)
    /*debug*/ Bug ("oversize b in quorem");
#endif
  if (b->_wds < n)
   1250c:	1b27ce63          	blt	a5,s2,126c8 <quorem+0x1e4>
    return 0;
  sx = S->_x;
  sxe = sx + --n;
   12510:	fff9091b          	addiw	s2,s2,-1
   12514:	00090f13          	mv	t5,s2
   12518:	002f1f13          	slli	t5,t5,0x2
  /*debug*/ if (b->_wds > n)
    /*debug*/ Bug ("oversize b in quorem");
#endif
  if (b->_wds < n)
    return 0;
  sx = S->_x;
   1251c:	01858413          	addi	s0,a1,24
  sxe = sx + --n;
   12520:	01e409b3          	add	s3,s0,t5
  bx = b->_x;
   12524:	01850a13          	addi	s4,a0,24
  bxe = bx + n;
   12528:	01ea0f33          	add	t5,s4,t5
  q = *bxe / (*sxe + 1);	/* ensure q <= true quotient */
   1252c:	0009a783          	lw	a5,0(s3) # 0 <_ftext-0x10000>
   12530:	000f2483          	lw	s1,0(t5)
   12534:	0017879b          	addiw	a5,a5,1
   12538:	02f4d4bb          	divuw	s1,s1,a5
#ifdef DEBUG
  /*debug*/ if (q > 9)
    /*debug*/ Bug ("oversized quotient in quorem");
#endif
  if (q)
   1253c:	0a048e63          	beqz	s1,125f8 <quorem+0x114>
      carry = 0;
      do
	{
#ifdef Pack_32
	  si = *sx++;
	  ys = (si & 0xffff) * q + carry;
   12540:	00010337          	lui	t1,0x10
   12544:	00040e93          	mv	t4,s0
#endif
  if (b->_wds < n)
    return 0;
  sx = S->_x;
  sxe = sx + --n;
  bx = b->_x;
   12548:	000a0e13          	mv	t3,s4
   1254c:	00000613          	li	a2,0
   12550:	00000713          	li	a4,0
      carry = 0;
      do
	{
#ifdef Pack_32
	  si = *sx++;
	  ys = (si & 0xffff) * q + carry;
   12554:	fff3031b          	addiw	t1,t1,-1
      borrow = 0;
      carry = 0;
      do
	{
#ifdef Pack_32
	  si = *sx++;
   12558:	004e8e93          	addi	t4,t4,4
   1255c:	ffcea803          	lw	a6,-4(t4)
	  ys = (si & 0xffff) * q + carry;
	  zs = (si >> 16) * q + (ys >> 16);
	  carry = zs >> 16;
	  y = (*bx & 0xffff) - (ys & 0xffff) + borrow;
   12560:	000e2683          	lw	a3,0(t3)
	  borrow = y >> 16;
	  Sign_Extend (borrow, y);
	  z = (*bx >> 16) - (zs & 0xffff) + borrow;
	  borrow = z >> 16;
	  Sign_Extend (borrow, z);
	  Storeinc (bx, z, y);
   12564:	004e0e13          	addi	t3,t3,4
      carry = 0;
      do
	{
#ifdef Pack_32
	  si = *sx++;
	  ys = (si & 0xffff) * q + carry;
   12568:	006878b3          	and	a7,a6,t1
   1256c:	029888bb          	mulw	a7,a7,s1
	  zs = (si >> 16) * q + (ys >> 16);
   12570:	0108581b          	srliw	a6,a6,0x10
	  carry = zs >> 16;
	  y = (*bx & 0xffff) - (ys & 0xffff) + borrow;
   12574:	0066f7b3          	and	a5,a3,t1
	  borrow = y >> 16;
	  Sign_Extend (borrow, y);
	  z = (*bx >> 16) - (zs & 0xffff) + borrow;
   12578:	0106d69b          	srliw	a3,a3,0x10
      do
	{
#ifdef Pack_32
	  si = *sx++;
	  ys = (si & 0xffff) * q + carry;
	  zs = (si >> 16) * q + (ys >> 16);
   1257c:	0298083b          	mulw	a6,a6,s1
      carry = 0;
      do
	{
#ifdef Pack_32
	  si = *sx++;
	  ys = (si & 0xffff) * q + carry;
   12580:	00c888bb          	addw	a7,a7,a2
	  zs = (si >> 16) * q + (ys >> 16);
   12584:	0108d61b          	srliw	a2,a7,0x10
	  carry = zs >> 16;
	  y = (*bx & 0xffff) - (ys & 0xffff) + borrow;
   12588:	0068f8b3          	and	a7,a7,t1
   1258c:	4117073b          	subw	a4,a4,a7
   12590:	00f707bb          	addw	a5,a4,a5
	  borrow = y >> 16;
	  Sign_Extend (borrow, y);
	  z = (*bx >> 16) - (zs & 0xffff) + borrow;
   12594:	4107d71b          	sraiw	a4,a5,0x10
	  borrow = z >> 16;
	  Sign_Extend (borrow, z);
	  Storeinc (bx, z, y);
   12598:	0067f7b3          	and	a5,a5,t1
      do
	{
#ifdef Pack_32
	  si = *sx++;
	  ys = (si & 0xffff) * q + carry;
	  zs = (si >> 16) * q + (ys >> 16);
   1259c:	00c8063b          	addw	a2,a6,a2
	  carry = zs >> 16;
	  y = (*bx & 0xffff) - (ys & 0xffff) + borrow;
	  borrow = y >> 16;
	  Sign_Extend (borrow, y);
	  z = (*bx >> 16) - (zs & 0xffff) + borrow;
   125a0:	00667833          	and	a6,a2,t1
   125a4:	410686bb          	subw	a3,a3,a6
   125a8:	00e6873b          	addw	a4,a3,a4
	  borrow = z >> 16;
	  Sign_Extend (borrow, z);
	  Storeinc (bx, z, y);
   125ac:	0107169b          	slliw	a3,a4,0x10
   125b0:	00f6e6b3          	or	a3,a3,a5
   125b4:	fede2e23          	sw	a3,-4(t3)
	{
#ifdef Pack_32
	  si = *sx++;
	  ys = (si & 0xffff) * q + carry;
	  zs = (si >> 16) * q + (ys >> 16);
	  carry = zs >> 16;
   125b8:	0106561b          	srliw	a2,a2,0x10
	  y = (*bx & 0xffff) - (ys & 0xffff) + borrow;
	  borrow = y >> 16;
	  Sign_Extend (borrow, y);
	  z = (*bx >> 16) - (zs & 0xffff) + borrow;
	  borrow = z >> 16;
   125bc:	4107571b          	sraiw	a4,a4,0x10
	  borrow = y >> 16;
	  Sign_Extend (borrow, y);
	  *bx++ = y & 0xffff;
#endif
	}
      while (sx <= sxe);
   125c0:	f9d9fce3          	bleu	t4,s3,12558 <quorem+0x74>
      if (!*bxe)
   125c4:	000f2783          	lw	a5,0(t5)
   125c8:	02079863          	bnez	a5,125f8 <quorem+0x114>
	{
	  bx = b->_x;
	  while (--bxe > bx && !*bxe)
   125cc:	ffcf0793          	addi	a5,t5,-4
   125d0:	02fa7263          	bleu	a5,s4,125f4 <quorem+0x110>
   125d4:	ffcf2703          	lw	a4,-4(t5)
   125d8:	00070863          	beqz	a4,125e8 <quorem+0x104>
   125dc:	0180006f          	j	125f4 <quorem+0x110>
   125e0:	0007a703          	lw	a4,0(a5)
   125e4:	00071863          	bnez	a4,125f4 <quorem+0x110>
   125e8:	ffc78793          	addi	a5,a5,-4
	    --n;
   125ec:	fff9091b          	addiw	s2,s2,-1
	}
      while (sx <= sxe);
      if (!*bxe)
	{
	  bx = b->_x;
	  while (--bxe > bx && !*bxe)
   125f0:	fefa68e3          	bltu	s4,a5,125e0 <quorem+0xfc>
	    --n;
	  b->_wds = n;
   125f4:	01252a23          	sw	s2,20(a0)
   125f8:	00050a93          	mv	s5,a0
	}
    }
  if (cmp (b, S) >= 0)
   125fc:	388030ef          	jal	15984 <__mcmp>
   12600:	0a054063          	bltz	a0,126a0 <quorem+0x1bc>
#ifdef Pack_32
	  si = *sx++;
	  ys = (si & 0xffff) + carry;
	  zs = (si >> 16) + (ys >> 16);
	  carry = zs >> 16;
	  y = (*bx & 0xffff) - (ys & 0xffff) + borrow;
   12604:	000105b7          	lui	a1,0x10
	  b->_wds = n;
	}
    }
  if (cmp (b, S) >= 0)
    {
      q++;
   12608:	0014849b          	addiw	s1,s1,1
#endif
  if (b->_wds < n)
    return 0;
  sx = S->_x;
  sxe = sx + --n;
  bx = b->_x;
   1260c:	000a0613          	mv	a2,s4
	}
    }
  if (cmp (b, S) >= 0)
    {
      q++;
      borrow = 0;
   12610:	00000793          	li	a5,0
#ifdef Pack_32
	  si = *sx++;
	  ys = (si & 0xffff) + carry;
	  zs = (si >> 16) + (ys >> 16);
	  carry = zs >> 16;
	  y = (*bx & 0xffff) - (ys & 0xffff) + borrow;
   12614:	fff5859b          	addiw	a1,a1,-1
      bx = b->_x;
      sx = S->_x;
      do
	{
#ifdef Pack_32
	  si = *sx++;
   12618:	00440413          	addi	s0,s0,4
   1261c:	ffc42683          	lw	a3,-4(s0)
	  ys = (si & 0xffff) + carry;
	  zs = (si >> 16) + (ys >> 16);
	  carry = zs >> 16;
	  y = (*bx & 0xffff) - (ys & 0xffff) + borrow;
   12620:	00062703          	lw	a4,0(a2)
	  borrow = y >> 16;
	  Sign_Extend (borrow, y);
	  z = (*bx >> 16) - (zs & 0xffff) + borrow;
	  borrow = z >> 16;
	  Sign_Extend (borrow, z);
	  Storeinc (bx, z, y);
   12624:	00460613          	addi	a2,a2,4
#ifdef Pack_32
	  si = *sx++;
	  ys = (si & 0xffff) + carry;
	  zs = (si >> 16) + (ys >> 16);
	  carry = zs >> 16;
	  y = (*bx & 0xffff) - (ys & 0xffff) + borrow;
   12628:	00b6f833          	and	a6,a3,a1
   1262c:	410787bb          	subw	a5,a5,a6
   12630:	00b77833          	and	a6,a4,a1
   12634:	010787bb          	addw	a5,a5,a6
	  borrow = y >> 16;
	  Sign_Extend (borrow, y);
	  z = (*bx >> 16) - (zs & 0xffff) + borrow;
   12638:	0106d69b          	srliw	a3,a3,0x10
   1263c:	0107571b          	srliw	a4,a4,0x10
   12640:	40d7073b          	subw	a4,a4,a3
   12644:	4107d69b          	sraiw	a3,a5,0x10
   12648:	00d706bb          	addw	a3,a4,a3
	  borrow = z >> 16;
	  Sign_Extend (borrow, z);
	  Storeinc (bx, z, y);
   1264c:	0106981b          	slliw	a6,a3,0x10
   12650:	00b7f733          	and	a4,a5,a1
   12654:	00e86733          	or	a4,a6,a4
   12658:	fee62e23          	sw	a4,-4(a2)
	  carry = zs >> 16;
	  y = (*bx & 0xffff) - (ys & 0xffff) + borrow;
	  borrow = y >> 16;
	  Sign_Extend (borrow, y);
	  z = (*bx >> 16) - (zs & 0xffff) + borrow;
	  borrow = z >> 16;
   1265c:	4106d79b          	sraiw	a5,a3,0x10
	  borrow = y >> 16;
	  Sign_Extend (borrow, y);
	  *bx++ = y & 0xffff;
#endif
	}
      while (sx <= sxe);
   12660:	fa89fce3          	bleu	s0,s3,12618 <quorem+0x134>
      bx = b->_x;
      bxe = bx + n;
   12664:	00291713          	slli	a4,s2,0x2
   12668:	00ea0733          	add	a4,s4,a4
      if (!*bxe)
   1266c:	00072783          	lw	a5,0(a4)
   12670:	02079863          	bnez	a5,126a0 <quorem+0x1bc>
	{
	  while (--bxe > bx && !*bxe)
   12674:	ffc70793          	addi	a5,a4,-4
   12678:	02fa7263          	bleu	a5,s4,1269c <quorem+0x1b8>
   1267c:	ffc72703          	lw	a4,-4(a4)
   12680:	00070863          	beqz	a4,12690 <quorem+0x1ac>
   12684:	0180006f          	j	1269c <quorem+0x1b8>
   12688:	0007a703          	lw	a4,0(a5)
   1268c:	00071863          	bnez	a4,1269c <quorem+0x1b8>
   12690:	ffc78793          	addi	a5,a5,-4
	    --n;
   12694:	fff9091b          	addiw	s2,s2,-1
      while (sx <= sxe);
      bx = b->_x;
      bxe = bx + n;
      if (!*bxe)
	{
	  while (--bxe > bx && !*bxe)
   12698:	fefa68e3          	bltu	s4,a5,12688 <quorem+0x1a4>
	    --n;
	  b->_wds = n;
   1269c:	012aaa23          	sw	s2,20(s5)
	}
    }
  return q;
   126a0:	00048513          	mv	a0,s1
}
   126a4:	03813083          	ld	ra,56(sp)
   126a8:	03013403          	ld	s0,48(sp)
   126ac:	02813483          	ld	s1,40(sp)
   126b0:	02013903          	ld	s2,32(sp)
   126b4:	01813983          	ld	s3,24(sp)
   126b8:	01013a03          	ld	s4,16(sp)
   126bc:	00813a83          	ld	s5,8(sp)
   126c0:	04010113          	addi	sp,sp,64
   126c4:	00008067          	ret
#ifdef DEBUG
  /*debug*/ if (b->_wds > n)
    /*debug*/ Bug ("oversize b in quorem");
#endif
  if (b->_wds < n)
    return 0;
   126c8:	00000513          	li	a0,0
   126cc:	fd9ff06f          	j	126a4 <quorem+0x1c0>

00000000000126d0 <_dtoa_r>:
	int mode _AND
	int ndigits _AND
	int *decpt _AND
	int *sign _AND
	char **rve)
{
   126d0:	e20585d3          	fmv.x.d	a1,fa1
  char *s, *s0;

  d.d = _d;

  _REENT_CHECK_MP(ptr);
  if (_REENT_MP_RESULT(ptr))
   126d4:	06053883          	ld	a7,96(a0)
	int mode _AND
	int ndigits _AND
	int *decpt _AND
	int *sign _AND
	char **rve)
{
   126d8:	f3010113          	addi	sp,sp,-208
   126dc:	0c813023          	sd	s0,192(sp)
   126e0:	0a913c23          	sd	s1,184(sp)
   126e4:	0b313423          	sd	s3,168(sp)
   126e8:	09613823          	sd	s6,144(sp)
   126ec:	07913c23          	sd	s9,120(sp)
   126f0:	07a13823          	sd	s10,112(sp)
   126f4:	0c113423          	sd	ra,200(sp)
   126f8:	0b213823          	sd	s2,176(sp)
   126fc:	0b413023          	sd	s4,160(sp)
   12700:	09513c23          	sd	s5,152(sp)
   12704:	09713423          	sd	s7,136(sp)
   12708:	09813023          	sd	s8,128(sp)
   1270c:	07b13423          	sd	s11,104(sp)
   12710:	00e13023          	sd	a4,0(sp)
   12714:	00050413          	mv	s0,a0
   12718:	00060993          	mv	s3,a2
   1271c:	00068c93          	mv	s9,a3
   12720:	00078493          	mv	s1,a5
   12724:	00080b13          	mv	s6,a6
#endif
  _Bigint *b, *b1, *delta, *mlo = NULL, *mhi, *S;
  double ds;
  char *s, *s0;

  d.d = _d;
   12728:	00058d13          	mv	s10,a1

  _REENT_CHECK_MP(ptr);
  if (_REENT_MP_RESULT(ptr))
   1272c:	02088263          	beqz	a7,12750 <_dtoa_r+0x80>
    {
      _REENT_MP_RESULT(ptr)->_k = _REENT_MP_RESULT_K(ptr);
   12730:	06852603          	lw	a2,104(a0)
      _REENT_MP_RESULT(ptr)->_maxwds = 1 << _REENT_MP_RESULT_K(ptr);
   12734:	00100693          	li	a3,1
      Bfree (ptr, _REENT_MP_RESULT(ptr));
   12738:	00088593          	mv	a1,a7

  _REENT_CHECK_MP(ptr);
  if (_REENT_MP_RESULT(ptr))
    {
      _REENT_MP_RESULT(ptr)->_k = _REENT_MP_RESULT_K(ptr);
      _REENT_MP_RESULT(ptr)->_maxwds = 1 << _REENT_MP_RESULT_K(ptr);
   1273c:	00c696bb          	sllw	a3,a3,a2
  d.d = _d;

  _REENT_CHECK_MP(ptr);
  if (_REENT_MP_RESULT(ptr))
    {
      _REENT_MP_RESULT(ptr)->_k = _REENT_MP_RESULT_K(ptr);
   12740:	00c8a423          	sw	a2,8(a7)
      _REENT_MP_RESULT(ptr)->_maxwds = 1 << _REENT_MP_RESULT_K(ptr);
   12744:	00d8a623          	sw	a3,12(a7)
      Bfree (ptr, _REENT_MP_RESULT(ptr));
   12748:	1f1020ef          	jal	15138 <_Bfree>
      _REENT_MP_RESULT(ptr) = 0;
   1274c:	06043023          	sd	zero,96(s0)
    }

  if (word0 (d) & Sign_bit)
   12750:	420d5913          	srai	s2,s10,0x20
   12754:	0c094063          	bltz	s2,12814 <_dtoa_r+0x144>
      /* set sign for everything, including 0's and NaNs */
      *sign = 1;
      word0 (d) &= ~Sign_bit;	/* clear sign bit */
    }
  else
    *sign = 0;
   12758:	0004a023          	sw	zero,0(s1)

#if defined(IEEE_Arith) + defined(VAX)
#ifdef IEEE_Arith
  if ((word0 (d) & Exp_mask) == Exp_mask)
   1275c:	7ff007b7          	lui	a5,0x7ff00
   12760:	00f976b3          	and	a3,s2,a5
   12764:	06f68a63          	beq	a3,a5,127d8 <_dtoa_r+0x108>
    }
#endif
#ifdef IBM
  d.d += 0;			/* normalize */
#endif
  if (!d.d)
   12768:	f20007d3          	fmv.d.x	fa5,zero
   1276c:	f20d0753          	fmv.d.x	fa4,s10
   12770:	a2f727d3          	feq.d	a5,fa4,fa5
   12774:	0c078463          	beqz	a5,1283c <_dtoa_r+0x16c>
    {
      *decpt = 1;
   12778:	00013703          	ld	a4,0(sp)
   1277c:	00100793          	li	a5,1
   12780:	00f72023          	sw	a5,0(a4)
      s = "0";
      if (rve)
   12784:	480b0a63          	beqz	s6,12c18 <_dtoa_r+0x548>
	*rve = s + 1;
   12788:	000197b7          	lui	a5,0x19
   1278c:	26178793          	addi	a5,a5,609 # 19261 <zeroes.4137+0x71>
      return s;
   12790:	00019537          	lui	a0,0x19
  if (!d.d)
    {
      *decpt = 1;
      s = "0";
      if (rve)
	*rve = s + 1;
   12794:	00fb3023          	sd	a5,0(s6)
      return s;
   12798:	26050513          	addi	a0,a0,608 # 19260 <zeroes.4137+0x70>
  *s = 0;
  *decpt = k + 1;
  if (rve)
    *rve = s;
  return s0;
}
   1279c:	0c813083          	ld	ra,200(sp)
   127a0:	0c013403          	ld	s0,192(sp)
   127a4:	0b813483          	ld	s1,184(sp)
   127a8:	0b013903          	ld	s2,176(sp)
   127ac:	0a813983          	ld	s3,168(sp)
   127b0:	0a013a03          	ld	s4,160(sp)
   127b4:	09813a83          	ld	s5,152(sp)
   127b8:	09013b03          	ld	s6,144(sp)
   127bc:	08813b83          	ld	s7,136(sp)
   127c0:	08013c03          	ld	s8,128(sp)
   127c4:	07813c83          	ld	s9,120(sp)
   127c8:	07013d03          	ld	s10,112(sp)
   127cc:	06813d83          	ld	s11,104(sp)
   127d0:	0d010113          	addi	sp,sp,208
   127d4:	00008067          	ret
#else
  if (word0 (d) == 0x8000)
#endif
    {
      /* Infinity or NaN */
      *decpt = 9999;
   127d8:	00013703          	ld	a4,0(sp)
   127dc:	000027b7          	lui	a5,0x2
   127e0:	70f7879b          	addiw	a5,a5,1807
   127e4:	00f72023          	sw	a5,0(a4)
      s =
#ifdef IEEE_Arith
	!word1 (d) && !(word0 (d) & 0xfffff) ? "Infinity" :
   127e8:	00cd1793          	slli	a5,s10,0xc
   127ec:	3e079863          	bnez	a5,12bdc <_dtoa_r+0x50c>
   127f0:	00019537          	lui	a0,0x19
   127f4:	26850513          	addi	a0,a0,616 # 19268 <zeroes.4137+0x78>
#endif
	"NaN";
      if (rve)
   127f8:	fa0b02e3          	beqz	s6,1279c <_dtoa_r+0xcc>
	*rve =
#ifdef IEEE_Arith
	  s[3] ? s + 8 :
   127fc:	00354703          	lbu	a4,3(a0)
   12800:	00350793          	addi	a5,a0,3
   12804:	00070463          	beqz	a4,1280c <_dtoa_r+0x13c>
   12808:	00850793          	addi	a5,a0,8
#ifdef IEEE_Arith
	!word1 (d) && !(word0 (d) & 0xfffff) ? "Infinity" :
#endif
	"NaN";
      if (rve)
	*rve =
   1280c:	00fb3023          	sd	a5,0(s6)
   12810:	f8dff06f          	j	1279c <_dtoa_r+0xcc>

  if (word0 (d) & Sign_bit)
    {
      /* set sign for everything, including 0's and NaNs */
      *sign = 1;
      word0 (d) &= ~Sign_bit;	/* clear sign bit */
   12814:	800007b7          	lui	a5,0x80000
   12818:	fff7c793          	not	a5,a5
   1281c:	020d1713          	slli	a4,s10,0x20
   12820:	00f97933          	and	s2,s2,a5
   12824:	02091793          	slli	a5,s2,0x20
   12828:	02075713          	srli	a4,a4,0x20
    }

  if (word0 (d) & Sign_bit)
    {
      /* set sign for everything, including 0's and NaNs */
      *sign = 1;
   1282c:	00100693          	li	a3,1
   12830:	00d4a023          	sw	a3,0(s1)
      word0 (d) &= ~Sign_bit;	/* clear sign bit */
   12834:	00f76d33          	or	s10,a4,a5
   12838:	f25ff06f          	j	1275c <_dtoa_r+0x8c>
      if (rve)
	*rve = s + 1;
      return s;
    }

  b = d2b (ptr, d.d, &be, &bbits);
   1283c:	f20d05d3          	fmv.d.x	fa1,s10
   12840:	05810693          	addi	a3,sp,88
   12844:	05c10613          	addi	a2,sp,92
   12848:	00040513          	mv	a0,s0
   1284c:	578030ef          	jal	15dc4 <__d2b>
   12850:	02a13023          	sd	a0,32(sp)
#ifdef Sudden_Underflow
  i = (int) (word0 (d) >> Exp_shift1 & (Exp_mask >> Exp_shift1));
#else
  if ((i = (int) (word0 (d) >> Exp_shift1 & (Exp_mask >> Exp_shift1))) != 0)
   12854:	0149581b          	srliw	a6,s2,0x14
   12858:	38081863          	bnez	a6,12be8 <_dtoa_r+0x518>
    }
  else
    {
      /* d is denormalized */

      i = bbits + be + (Bias + (P - 1) - 1);
   1285c:	05812603          	lw	a2,88(sp)
   12860:	05c12803          	lw	a6,92(sp)
#if defined (_DOUBLE_IS_32BITS)
      x = word0 (d) << (32 - i);
#else
      x = (i > 32) ? (word0 (d) << (64 - i)) | (word1 (d) >> (i - 32))
       : (word1 (d) << (32 - i));
   12864:	02000793          	li	a5,32
    }
  else
    {
      /* d is denormalized */

      i = bbits + be + (Bias + (P - 1) - 1);
   12868:	0106083b          	addw	a6,a2,a6
   1286c:	4328069b          	addiw	a3,a6,1074
#if defined (_DOUBLE_IS_32BITS)
      x = word0 (d) << (32 - i);
#else
      x = (i > 32) ? (word0 (d) << (64 - i)) | (word1 (d) >> (i - 32))
       : (word1 (d) << (32 - i));
   12870:	6ad7de63          	ble	a3,a5,12f2c <_dtoa_r+0x85c>
   12874:	04000593          	li	a1,64
   12878:	4128049b          	addiw	s1,a6,1042

      i = bbits + be + (Bias + (P - 1) - 1);
#if defined (_DOUBLE_IS_32BITS)
      x = word0 (d) << (32 - i);
#else
      x = (i > 32) ? (word0 (d) << (64 - i)) | (word1 (d) >> (i - 32))
   1287c:	000d079b          	sext.w	a5,s10
       : (word1 (d) << (32 - i));
   12880:	40d585bb          	subw	a1,a1,a3
   12884:	0097d7bb          	srlw	a5,a5,s1
   12888:	00b914bb          	sllw	s1,s2,a1
   1288c:	0097e4b3          	or	s1,a5,s1
#endif
      d2.d = x;
   12890:	d21487d3          	fcvt.d.wu	fa5,s1
      word0 (d2) -= 31 * Exp_msk1;	/* adjust exponent */
   12894:	fe1006b7          	lui	a3,0xfe100
      i -= (Bias + (P - 1) - 1) + 1;
   12898:	fff8081b          	addiw	a6,a6,-1
      x = word0 (d) << (32 - i);
#else
      x = (i > 32) ? (word0 (d) << (64 - i)) | (word1 (d) >> (i - 32))
       : (word1 (d) << (32 - i));
#endif
      d2.d = x;
   1289c:	e20784d3          	fmv.x.d	s1,fa5
      word0 (d2) -= 31 * Exp_msk1;	/* adjust exponent */
      i -= (Bias + (P - 1) - 1) + 1;
      denorm = 1;
   128a0:	00100913          	li	s2,1
#else
      x = (i > 32) ? (word0 (d) << (64 - i)) | (word1 (d) >> (i - 32))
       : (word1 (d) << (32 - i));
#endif
      d2.d = x;
      word0 (d2) -= 31 * Exp_msk1;	/* adjust exponent */
   128a4:	4204d793          	srai	a5,s1,0x20
   128a8:	00d787bb          	addw	a5,a5,a3
   128ac:	02049493          	slli	s1,s1,0x20
   128b0:	02079793          	slli	a5,a5,0x20
   128b4:	0204d493          	srli	s1,s1,0x20
   128b8:	00f4e4b3          	or	s1,s1,a5
    }
#endif
#if defined (_DOUBLE_IS_32BITS)
  ds = (d2.d - 1.5) * 0.289529651 + 0.176091269 + i * 0.30103001;
#else
  ds = (d2.d - 1.5) * 0.289529654602168 + 0.1760912590558 + i * 0.301029995663981;
   128bc:	0001b7b7          	lui	a5,0x1b
   128c0:	3087b787          	fld	fa5,776(a5) # 1b308 <__wctomb+0x8>
   128c4:	f2048753          	fmv.d.x	fa4,s1
   128c8:	0001b7b7          	lui	a5,0x1b
   128cc:	0af77653          	fsub.d	fa2,fa4,fa5
   128d0:	3187b787          	fld	fa5,792(a5) # 1b318 <__wctomb+0x18>
   128d4:	0001b7b7          	lui	a5,0x1b
   128d8:	3107b687          	fld	fa3,784(a5) # 1b310 <__wctomb+0x10>
   128dc:	0001b7b7          	lui	a5,0x1b
   128e0:	d2080753          	fcvt.d.w	fa4,a6
   128e4:	7ad677c3          	fmadd.d	fa5,fa2,fa3,fa5
   128e8:	3207b687          	fld	fa3,800(a5) # 1b320 <__wctomb+0x20>
   128ec:	7ad777c3          	fmadd.d	fa5,fa4,fa3,fa5
#endif
  k = (int) ds;
  if (ds < 0. && ds != k)
   128f0:	f2000753          	fmv.d.x	fa4,zero
   128f4:	a2e797d3          	flt.d	a5,fa5,fa4
#if defined (_DOUBLE_IS_32BITS)
  ds = (d2.d - 1.5) * 0.289529651 + 0.176091269 + i * 0.30103001;
#else
  ds = (d2.d - 1.5) * 0.289529654602168 + 0.1760912590558 + i * 0.301029995663981;
#endif
  k = (int) ds;
   128f8:	c2079bd3          	fcvt.w.d	s7,fa5,rtz
  if (ds < 0. && ds != k)
   128fc:	5e079e63          	bnez	a5,12ef8 <_dtoa_r+0x828>
    k--;			/* want k = floor(ds) */
  k_check = 1;
   12900:	00100793          	li	a5,1
   12904:	02f12823          	sw	a5,48(sp)
  if (k >= 0 && k <= Ten_pmax)
   12908:	01600793          	li	a5,22
   1290c:	0377e663          	bltu	a5,s7,12938 <_dtoa_r+0x268>
    {
      if (d.d < tens[k])
   12910:	000197b7          	lui	a5,0x19
   12914:	003b9693          	slli	a3,s7,0x3
   12918:	f6078793          	addi	a5,a5,-160 # 18f60 <__mprec_tens>
   1291c:	00f687b3          	add	a5,a3,a5
   12920:	0007b787          	fld	fa5,0(a5)
   12924:	f20d0753          	fmv.d.x	fa4,s10
   12928:	a2f717d3          	flt.d	a5,fa4,fa5
   1292c:	60078863          	beqz	a5,12f3c <_dtoa_r+0x86c>
	k--;
   12930:	fffb8b9b          	addiw	s7,s7,-1
      k_check = 0;
   12934:	02012823          	sw	zero,48(sp)
    }
  j = bbits - i - 1;
   12938:	4106083b          	subw	a6,a2,a6
   1293c:	fff80d9b          	addiw	s11,a6,-1
  if (j >= 0)
    {
      b2 = 0;
   12940:	00000813          	li	a6,0
      if (d.d < tens[k])
	k--;
      k_check = 0;
    }
  j = bbits - i - 1;
  if (j >= 0)
   12944:	2e0dc063          	bltz	s11,12c24 <_dtoa_r+0x554>
  else
    {
      b2 = -j;
      s2 = 0;
    }
  if (k >= 0)
   12948:	5c0bc263          	bltz	s7,12f0c <_dtoa_r+0x83c>
    {
      b5 = 0;
      s5 = k;
      s2 += k;
   1294c:	017d8dbb          	addw	s11,s11,s7
   12950:	03712423          	sw	s7,40(sp)
      b2 = -j;
      s2 = 0;
    }
  if (k >= 0)
    {
      b5 = 0;
   12954:	00000c13          	li	s8,0
    {
      b2 -= k;
      b5 = -k;
      s5 = 0;
    }
  if (mode < 0 || mode > 9)
   12958:	00900793          	li	a5,9
   1295c:	2d37ea63          	bltu	a5,s3,12c30 <_dtoa_r+0x560>
    mode = 0;
  try_quick = 1;
  if (mode > 5)
   12960:	00500793          	li	a5,5
      b5 = -k;
      s5 = 0;
    }
  if (mode < 0 || mode > 9)
    mode = 0;
  try_quick = 1;
   12964:	00100a13          	li	s4,1
  if (mode > 5)
   12968:	0137d663          	ble	s3,a5,12974 <_dtoa_r+0x2a4>
    {
      mode -= 4;
   1296c:	ffc9899b          	addiw	s3,s3,-4
      try_quick = 0;
   12970:	00000a13          	li	s4,0
    }
  leftright = 1;
  ilim = ilim1 = -1;
  switch (mode)
   12974:	00300793          	li	a5,3
   12978:	2af982e3          	beq	s3,a5,1341c <_dtoa_r+0xd4c>
   1297c:	1f37dce3          	ble	s3,a5,13374 <_dtoa_r+0xca4>
   12980:	00400793          	li	a5,4
   12984:	0cf98ae3          	beq	s3,a5,13258 <_dtoa_r+0xb88>
  if (mode > 5)
    {
      mode -= 4;
      try_quick = 0;
    }
  leftright = 1;
   12988:	00100793          	li	a5,1
   1298c:	00f12823          	sw	a5,16(sp)
  ilim = ilim1 = -1;
  switch (mode)
   12990:	00500793          	li	a5,5
   12994:	1ef996e3          	bne	s3,a5,13380 <_dtoa_r+0xcb0>
      break;
    case 3:
      leftright = 0;
      /* no break */
    case 5:
      i = ndigits + k + 1;
   12998:	019b87bb          	addw	a5,s7,s9
   1299c:	00178a9b          	addiw	s5,a5,1
   129a0:	02f12a23          	sw	a5,52(sp)
   129a4:	000a8513          	mv	a0,s5
   129a8:	000a8493          	mv	s1,s5
      ilim = i;
      ilim1 = i - 1;
      if (i <= 0)
   129ac:	1b505ee3          	blez	s5,13368 <_dtoa_r+0xc98>
	i = 1;
    }
  j = sizeof (__ULong);
  for (_REENT_MP_RESULT_K(ptr) = 0; sizeof (_Bigint) - sizeof (__ULong) + j <= i;
   129b0:	06042423          	sw	zero,104(s0)
   129b4:	01f00793          	li	a5,31
   129b8:	00000593          	li	a1,0
   129bc:	02a7f463          	bleu	a0,a5,129e4 <_dtoa_r+0x314>
   129c0:	00100613          	li	a2,1
   129c4:	00400693          	li	a3,4
       j <<= 1)
   129c8:	0016969b          	slliw	a3,a3,0x1
      ilim1 = i - 1;
      if (i <= 0)
	i = 1;
    }
  j = sizeof (__ULong);
  for (_REENT_MP_RESULT_K(ptr) = 0; sizeof (_Bigint) - sizeof (__ULong) + j <= i;
   129cc:	00068793          	mv	a5,a3
   129d0:	01c78793          	addi	a5,a5,28
       j <<= 1)
    _REENT_MP_RESULT_K(ptr)++;
   129d4:	00060593          	mv	a1,a2
   129d8:	0016061b          	addiw	a2,a2,1
      ilim1 = i - 1;
      if (i <= 0)
	i = 1;
    }
  j = sizeof (__ULong);
  for (_REENT_MP_RESULT_K(ptr) = 0; sizeof (_Bigint) - sizeof (__ULong) + j <= i;
   129dc:	fef576e3          	bleu	a5,a0,129c8 <_dtoa_r+0x2f8>
   129e0:	06b42423          	sw	a1,104(s0)
       j <<= 1)
    _REENT_MP_RESULT_K(ptr)++;
  _REENT_MP_RESULT(ptr) = Balloc (ptr, _REENT_MP_RESULT_K(ptr));
   129e4:	00040513          	mv	a0,s0
   129e8:	03013c23          	sd	a6,56(sp)
   129ec:	6a0020ef          	jal	1508c <_Balloc>
   129f0:	00a13423          	sd	a0,8(sp)
   129f4:	06a43023          	sd	a0,96(s0)
  s = s0 = (char *) _REENT_MP_RESULT(ptr);

  if (ilim >= 0 && ilim <= Quick_max && try_quick)
   129f8:	00e00793          	li	a5,14
   129fc:	03813803          	ld	a6,56(sp)
   12a00:	2697e463          	bltu	a5,s1,12c68 <_dtoa_r+0x598>
   12a04:	260a0263          	beqz	s4,12c68 <_dtoa_r+0x598>
    {
      /* Try to get by with floating-point arithmetic. */

      i = 0;
      d2.d = d.d;
   12a08:	03a13c23          	sd	s10,56(sp)
      k0 = k;
      ilim0 = ilim;
      ieps = 2;			/* conservative */
      if (k > 0)
   12a0c:	317054e3          	blez	s7,13514 <_dtoa_r+0xe44>
	{
	  ds = tens[k & 0xf];
   12a10:	00fbf713          	andi	a4,s7,15
   12a14:	00371693          	slli	a3,a4,0x3
   12a18:	00019737          	lui	a4,0x19
	  j = k >> 4;
   12a1c:	404bd79b          	sraiw	a5,s7,0x4
      k0 = k;
      ilim0 = ilim;
      ieps = 2;			/* conservative */
      if (k > 0)
	{
	  ds = tens[k & 0xf];
   12a20:	f6070713          	addi	a4,a4,-160 # 18f60 <__mprec_tens>
   12a24:	00e68733          	add	a4,a3,a4
	  j = k >> 4;
	  if (j & Bletch)
   12a28:	0107f693          	andi	a3,a5,16
      k0 = k;
      ilim0 = ilim;
      ieps = 2;			/* conservative */
      if (k > 0)
	{
	  ds = tens[k & 0xf];
   12a2c:	00073687          	fld	fa3,0(a4)
   12a30:	f20d07d3          	fmv.d.x	fa5,s10

      i = 0;
      d2.d = d.d;
      k0 = k;
      ilim0 = ilim;
      ieps = 2;			/* conservative */
   12a34:	00200713          	li	a4,2
      if (k > 0)
	{
	  ds = tens[k & 0xf];
	  j = k >> 4;
	  if (j & Bletch)
   12a38:	00068c63          	beqz	a3,12a50 <_dtoa_r+0x380>
	    {
	      /* prevent overflows */
	      j &= Bletch - 1;
	      d.d /= bigtens[n_bigtens - 1];
   12a3c:	00019737          	lui	a4,0x19
   12a40:	07073707          	fld	fa4,112(a4) # 19070 <__mprec_bigtens+0x20>
	  ds = tens[k & 0xf];
	  j = k >> 4;
	  if (j & Bletch)
	    {
	      /* prevent overflows */
	      j &= Bletch - 1;
   12a44:	00f7f793          	andi	a5,a5,15
	      d.d /= bigtens[n_bigtens - 1];
	      ieps++;
   12a48:	00300713          	li	a4,3
	  j = k >> 4;
	  if (j & Bletch)
	    {
	      /* prevent overflows */
	      j &= Bletch - 1;
	      d.d /= bigtens[n_bigtens - 1];
   12a4c:	1ae7f7d3          	fdiv.d	fa5,fa5,fa4
	      ieps++;
	    }
	  for (; j; j >>= 1, i++)
   12a50:	02078663          	beqz	a5,12a7c <_dtoa_r+0x3ac>
   12a54:	000196b7          	lui	a3,0x19
   12a58:	05068693          	addi	a3,a3,80 # 19050 <__mprec_bigtens>
	    if (j & 1)
   12a5c:	0017f613          	andi	a2,a5,1
	      /* prevent overflows */
	      j &= Bletch - 1;
	      d.d /= bigtens[n_bigtens - 1];
	      ieps++;
	    }
	  for (; j; j >>= 1, i++)
   12a60:	4017d79b          	sraiw	a5,a5,0x1
	    if (j & 1)
   12a64:	00060863          	beqz	a2,12a74 <_dtoa_r+0x3a4>
	      {
		ieps++;
		ds *= bigtens[i];
   12a68:	0006b707          	fld	fa4,0(a3)
	      ieps++;
	    }
	  for (; j; j >>= 1, i++)
	    if (j & 1)
	      {
		ieps++;
   12a6c:	0017071b          	addiw	a4,a4,1
		ds *= bigtens[i];
   12a70:	12e6f6d3          	fmul.d	fa3,fa3,fa4
   12a74:	00868693          	addi	a3,a3,8
	      /* prevent overflows */
	      j &= Bletch - 1;
	      d.d /= bigtens[n_bigtens - 1];
	      ieps++;
	    }
	  for (; j; j >>= 1, i++)
   12a78:	fe0792e3          	bnez	a5,12a5c <_dtoa_r+0x38c>
	    if (j & 1)
	      {
		ieps++;
		ds *= bigtens[i];
	      }
	  d.d /= ds;
   12a7c:	1ad7f7d3          	fdiv.d	fa5,fa5,fa3
	      {
		ieps++;
		d.d *= bigtens[i];
	      }
	}
      if (k_check && d.d < 1. && ilim > 0)
   12a80:	03012783          	lw	a5,48(sp)
   12a84:	00078a63          	beqz	a5,12a98 <_dtoa_r+0x3c8>
   12a88:	0001b7b7          	lui	a5,0x1b
   12a8c:	3287b707          	fld	fa4,808(a5) # 1b328 <__wctomb+0x28>
   12a90:	a2e797d3          	flt.d	a5,fa5,fa4
   12a94:	440790e3          	bnez	a5,136d4 <_dtoa_r+0x1004>
	  ilim = ilim1;
	  k--;
	  d.d *= 10.;
	  ieps++;
	}
      eps.d = ieps * d.d + 7.;
   12a98:	0001b7b7          	lui	a5,0x1b
   12a9c:	d20706d3          	fcvt.d.w	fa3,a4
   12aa0:	3387b707          	fld	fa4,824(a5) # 1b338 <__wctomb+0x38>
      word0 (eps) -= (P - 1) * Exp_msk1;
   12aa4:	fcc006b7          	lui	a3,0xfcc00
	  ilim = ilim1;
	  k--;
	  d.d *= 10.;
	  ieps++;
	}
      eps.d = ieps * d.d + 7.;
   12aa8:	72f6f743          	fmadd.d	fa4,fa3,fa5,fa4
   12aac:	e2070753          	fmv.x.d	a4,fa4
      word0 (eps) -= (P - 1) * Exp_msk1;
   12ab0:	42075793          	srai	a5,a4,0x20
   12ab4:	00d787bb          	addw	a5,a5,a3
   12ab8:	02071713          	slli	a4,a4,0x20
   12abc:	02079793          	slli	a5,a5,0x20
   12ac0:	02075713          	srli	a4,a4,0x20
   12ac4:	00f76733          	or	a4,a4,a5
      if (ilim == 0)
   12ac8:	180a86e3          	beqz	s5,13454 <_dtoa_r+0xd84>
   12acc:	000b8693          	mv	a3,s7
   12ad0:	000a8613          	mv	a2,s5
	  if (d.d < -eps.d)
	    goto no_digits;
	  goto fast_failed;
	}
#ifndef No_leftright
      if (leftright)
   12ad4:	01012783          	lw	a5,16(sp)
   12ad8:	300782e3          	beqz	a5,135dc <_dtoa_r+0xf0c>
	{
	  /* Use Steele & White method of only
	   * generating digits needed.
	   */
	  eps.d = 0.5 / tens[ilim - 1] - eps.d;
   12adc:	fff6079b          	addiw	a5,a2,-1
   12ae0:	000195b7          	lui	a1,0x19
   12ae4:	f6058593          	addi	a1,a1,-160 # 18f60 <__mprec_tens>
   12ae8:	00379793          	slli	a5,a5,0x3
   12aec:	00b787b3          	add	a5,a5,a1
   12af0:	0001b5b7          	lui	a1,0x1b
   12af4:	0007b687          	fld	fa3,0(a5)
   12af8:	3485b707          	fld	fa4,840(a1) # 1b348 <__wctomb+0x48>
	  for (i = 0;;)
	    {
	      L = d.d;
   12afc:	c20797d3          	fcvt.w.d	a5,fa5,rtz
	      d.d -= L;
	      *s++ = '0' + (int) L;
   12b00:	00813503          	ld	a0,8(sp)
      if (leftright)
	{
	  /* Use Steele & White method of only
	   * generating digits needed.
	   */
	  eps.d = 0.5 / tens[ilim - 1] - eps.d;
   12b04:	1ad77753          	fdiv.d	fa4,fa4,fa3
	  for (i = 0;;)
	    {
	      L = d.d;
	      d.d -= L;
   12b08:	d20786d3          	fcvt.d.w	fa3,a5
	      *s++ = '0' + (int) L;
   12b0c:	0307879b          	addiw	a5,a5,48
   12b10:	0ff7f793          	andi	a5,a5,255
	   */
	  eps.d = 0.5 / tens[ilim - 1] - eps.d;
	  for (i = 0;;)
	    {
	      L = d.d;
	      d.d -= L;
   12b14:	0ad7f7d3          	fsub.d	fa5,fa5,fa3
      if (leftright)
	{
	  /* Use Steele & White method of only
	   * generating digits needed.
	   */
	  eps.d = 0.5 / tens[ilim - 1] - eps.d;
   12b18:	f20706d3          	fmv.d.x	fa3,a4
	  for (i = 0;;)
	    {
	      L = d.d;
	      d.d -= L;
	      *s++ = '0' + (int) L;
   12b1c:	00f50023          	sb	a5,0(a0)
   12b20:	00150493          	addi	s1,a0,1
      if (leftright)
	{
	  /* Use Steele & White method of only
	   * generating digits needed.
	   */
	  eps.d = 0.5 / tens[ilim - 1] - eps.d;
   12b24:	0ad77753          	fsub.d	fa4,fa4,fa3
	  for (i = 0;;)
	    {
	      L = d.d;
	      d.d -= L;
	      *s++ = '0' + (int) L;
	      if (d.d < eps.d)
   12b28:	a2e79753          	flt.d	a4,fa5,fa4
   12b2c:	08071063          	bnez	a4,12bac <_dtoa_r+0x4dc>
		goto ret1;
	      if (1. - d.d < eps.d)
   12b30:	0001b737          	lui	a4,0x1b
   12b34:	32873587          	fld	fa1,808(a4) # 1b328 <__wctomb+0x28>
   12b38:	0af5f6d3          	fsub.d	fa3,fa1,fa5
   12b3c:	a2e69753          	flt.d	a4,fa3,fa4
   12b40:	40071ae3          	bnez	a4,13754 <_dtoa_r+0x1084>
		goto bump_up;
	      if (++i >= ilim)
   12b44:	00100793          	li	a5,1
   12b48:	1ac7d4e3          	ble	a2,a5,134f0 <_dtoa_r+0xe20>
   12b4c:	0001b7b7          	lui	a5,0x1b
   12b50:	ffe6061b          	addiw	a2,a2,-2
   12b54:	02061613          	slli	a2,a2,0x20
		break;
	      eps.d *= 10.;
   12b58:	3307b607          	fld	fa2,816(a5) # 1b330 <__wctomb+0x30>
   12b5c:	00813783          	ld	a5,8(sp)
   12b60:	02065613          	srli	a2,a2,0x20
   12b64:	00260613          	addi	a2,a2,2
   12b68:	00c78633          	add	a2,a5,a2
   12b6c:	0140006f          	j	12b80 <_dtoa_r+0x4b0>
	      L = d.d;
	      d.d -= L;
	      *s++ = '0' + (int) L;
	      if (d.d < eps.d)
		goto ret1;
	      if (1. - d.d < eps.d)
   12b70:	0af5f6d3          	fsub.d	fa3,fa1,fa5
   12b74:	a2e69753          	flt.d	a4,fa3,fa4
   12b78:	3c071ee3          	bnez	a4,13754 <_dtoa_r+0x1084>
		goto bump_up;
	      if (++i >= ilim)
   12b7c:	16960ae3          	beq	a2,s1,134f0 <_dtoa_r+0xe20>
		break;
	      eps.d *= 10.;
	      d.d *= 10.;
   12b80:	12c7f7d3          	fmul.d	fa5,fa5,fa2
		goto ret1;
	      if (1. - d.d < eps.d)
		goto bump_up;
	      if (++i >= ilim)
		break;
	      eps.d *= 10.;
   12b84:	12c77753          	fmul.d	fa4,fa4,fa2
	  eps.d = 0.5 / tens[ilim - 1] - eps.d;
	  for (i = 0;;)
	    {
	      L = d.d;
	      d.d -= L;
	      *s++ = '0' + (int) L;
   12b88:	00148493          	addi	s1,s1,1
	   * generating digits needed.
	   */
	  eps.d = 0.5 / tens[ilim - 1] - eps.d;
	  for (i = 0;;)
	    {
	      L = d.d;
   12b8c:	c20797d3          	fcvt.w.d	a5,fa5,rtz
	      d.d -= L;
   12b90:	d20786d3          	fcvt.d.w	fa3,a5
	      *s++ = '0' + (int) L;
   12b94:	0307879b          	addiw	a5,a5,48
   12b98:	0ff7f793          	andi	a5,a5,255
	   */
	  eps.d = 0.5 / tens[ilim - 1] - eps.d;
	  for (i = 0;;)
	    {
	      L = d.d;
	      d.d -= L;
   12b9c:	0ad7f7d3          	fsub.d	fa5,fa5,fa3
	      *s++ = '0' + (int) L;
   12ba0:	fef48fa3          	sb	a5,-1(s1)
	      if (d.d < eps.d)
   12ba4:	a2e79753          	flt.d	a4,fa5,fa4
   12ba8:	fc0704e3          	beqz	a4,12b70 <_dtoa_r+0x4a0>
   12bac:	00068b93          	mv	s7,a3
      if (mlo && mlo != mhi)
	Bfree (ptr, mlo);
      Bfree (ptr, mhi);
    }
ret1:
  Bfree (ptr, b);
   12bb0:	02013583          	ld	a1,32(sp)
   12bb4:	00040513          	mv	a0,s0
  *s = 0;
  *decpt = k + 1;
   12bb8:	001b8b9b          	addiw	s7,s7,1
      if (mlo && mlo != mhi)
	Bfree (ptr, mlo);
      Bfree (ptr, mhi);
    }
ret1:
  Bfree (ptr, b);
   12bbc:	57c020ef          	jal	15138 <_Bfree>
  *s = 0;
  *decpt = k + 1;
   12bc0:	00013783          	ld	a5,0(sp)
	Bfree (ptr, mlo);
      Bfree (ptr, mhi);
    }
ret1:
  Bfree (ptr, b);
  *s = 0;
   12bc4:	00048023          	sb	zero,0(s1)
  *decpt = k + 1;
   12bc8:	0177a023          	sw	s7,0(a5)
  if (rve)
   12bcc:	0c0b0ce3          	beqz	s6,134a4 <_dtoa_r+0xdd4>
    *rve = s;
   12bd0:	009b3023          	sd	s1,0(s6)
   12bd4:	00813503          	ld	a0,8(sp)
   12bd8:	bc5ff06f          	j	1279c <_dtoa_r+0xcc>
    {
      /* Infinity or NaN */
      *decpt = 9999;
      s =
#ifdef IEEE_Arith
	!word1 (d) && !(word0 (d) & 0xfffff) ? "Infinity" :
   12bdc:	00019537          	lui	a0,0x19
   12be0:	27850513          	addi	a0,a0,632 # 19278 <zeroes.4137+0x88>
   12be4:	c15ff06f          	j	127f8 <_dtoa_r+0x128>
  if ((i = (int) (word0 (d) >> Exp_shift1 & (Exp_mask >> Exp_shift1))) != 0)
    {
#endif
      d2.d = d.d;
      word0 (d2) &= Frac_mask1;
      word0 (d2) |= Exp_11;
   12be8:	00cd1793          	slli	a5,s10,0xc
   12bec:	02c7d693          	srli	a3,a5,0x2c
   12bf0:	3ff007b7          	lui	a5,0x3ff00
   12bf4:	00f6e7b3          	or	a5,a3,a5
   12bf8:	020d1493          	slli	s1,s10,0x20
   12bfc:	02079793          	slli	a5,a5,0x20
   12c00:	0204d493          	srli	s1,s1,0x20
   12c04:	00f4e4b3          	or	s1,s1,a5
		 * Hence we adjust the constant term to 0.1760912590558.
		 * (We could get a more accurate k by invoking log10,
		 *  but this is probably not worthwhile.)
		 */

      i -= Bias;
   12c08:	c018081b          	addiw	a6,a6,-1023
   12c0c:	05812603          	lw	a2,88(sp)
#ifdef IBM
      i <<= 2;
      i += j;
#endif
#ifndef Sudden_Underflow
      denorm = 0;
   12c10:	00000913          	li	s2,0
   12c14:	ca9ff06f          	j	128bc <_dtoa_r+0x1ec>
    {
      *decpt = 1;
      s = "0";
      if (rve)
	*rve = s + 1;
      return s;
   12c18:	00019537          	lui	a0,0x19
   12c1c:	26050513          	addi	a0,a0,608 # 19260 <zeroes.4137+0x70>
   12c20:	b7dff06f          	j	1279c <_dtoa_r+0xcc>
      b2 = 0;
      s2 = j;
    }
  else
    {
      b2 = -j;
   12c24:	41b0083b          	negw	a6,s11
      s2 = 0;
   12c28:	00000d93          	li	s11,0
   12c2c:	d1dff06f          	j	12948 <_dtoa_r+0x278>
      ilim1 = i - 1;
      if (i <= 0)
	i = 1;
    }
  j = sizeof (__ULong);
  for (_REENT_MP_RESULT_K(ptr) = 0; sizeof (_Bigint) - sizeof (__ULong) + j <= i;
   12c30:	06042423          	sw	zero,104(s0)
       j <<= 1)
    _REENT_MP_RESULT_K(ptr)++;
  _REENT_MP_RESULT(ptr) = Balloc (ptr, _REENT_MP_RESULT_K(ptr));
   12c34:	00000593          	li	a1,0
   12c38:	00040513          	mv	a0,s0
   12c3c:	03013c23          	sd	a6,56(sp)
   12c40:	44c020ef          	jal	1508c <_Balloc>
   12c44:	03813803          	ld	a6,56(sp)
    {
      mode -= 4;
      try_quick = 0;
    }
  leftright = 1;
  ilim = ilim1 = -1;
   12c48:	fff00a93          	li	s5,-1
  if (mode > 5)
    {
      mode -= 4;
      try_quick = 0;
    }
  leftright = 1;
   12c4c:	00100793          	li	a5,1
    }
  j = sizeof (__ULong);
  for (_REENT_MP_RESULT_K(ptr) = 0; sizeof (_Bigint) - sizeof (__ULong) + j <= i;
       j <<= 1)
    _REENT_MP_RESULT_K(ptr)++;
  _REENT_MP_RESULT(ptr) = Balloc (ptr, _REENT_MP_RESULT_K(ptr));
   12c50:	00a13423          	sd	a0,8(sp)
   12c54:	06a43023          	sd	a0,96(s0)
    {
      mode -= 4;
      try_quick = 0;
    }
  leftright = 1;
  ilim = ilim1 = -1;
   12c58:	03512a23          	sw	s5,52(sp)
      b2 -= k;
      b5 = -k;
      s5 = 0;
    }
  if (mode < 0 || mode > 9)
    mode = 0;
   12c5c:	00000993          	li	s3,0
  switch (mode)
    {
    case 0:
    case 1:
      i = 18;
      ndigits = 0;
   12c60:	00000c93          	li	s9,0
  if (mode > 5)
    {
      mode -= 4;
      try_quick = 0;
    }
  leftright = 1;
   12c64:	00f12823          	sw	a5,16(sp)
      ilim = ilim0;
    }

  /* Do we have a "small" integer? */

  if (be >= 0 && k <= Int_max)
   12c68:	05c12783          	lw	a5,92(sp)
   12c6c:	0e07ca63          	bltz	a5,12d60 <_dtoa_r+0x690>
   12c70:	00e00693          	li	a3,14
   12c74:	0f76c663          	blt	a3,s7,12d60 <_dtoa_r+0x690>
    {
      /* Yes. */
      ds = tens[k];
   12c78:	000197b7          	lui	a5,0x19
   12c7c:	003b9693          	slli	a3,s7,0x3
   12c80:	f6078793          	addi	a5,a5,-160 # 18f60 <__mprec_tens>
   12c84:	00f687b3          	add	a5,a3,a5
   12c88:	0007b687          	fld	fa3,0(a5)
      if (ndigits < 0 && ilim <= 0)
   12c8c:	5e0cc663          	bltz	s9,13278 <_dtoa_r+0xba8>
	    goto no_digits;
	  goto one_digit;
	}
      for (i = 1;; i++)
	{
	  L = d.d / ds;
   12c90:	f20d0653          	fmv.d.x	fa2,s10
	    {
	      L--;
	      d.d += ds;
	    }
#endif
	  *s++ = '0' + (int) L;
   12c94:	00813703          	ld	a4,8(sp)
	  goto one_digit;
	}
      for (i = 1;; i++)
	{
	  L = d.d / ds;
	  d.d -= L * ds;
   12c98:	22d69553          	fneg.d	fa0,fa3
	    goto no_digits;
	  goto one_digit;
	}
      for (i = 1;; i++)
	{
	  L = d.d / ds;
   12c9c:	1ad67753          	fdiv.d	fa4,fa2,fa3
	    {
	      L--;
	      d.d += ds;
	    }
#endif
	  *s++ = '0' + (int) L;
   12ca0:	00170493          	addi	s1,a4,1
	    goto no_digits;
	  goto one_digit;
	}
      for (i = 1;; i++)
	{
	  L = d.d / ds;
   12ca4:	c20717d3          	fcvt.w.d	a5,fa4,rtz
	  d.d -= L * ds;
   12ca8:	d20787d3          	fcvt.d.w	fa5,a5
	    {
	      L--;
	      d.d += ds;
	    }
#endif
	  *s++ = '0' + (int) L;
   12cac:	0307869b          	addiw	a3,a5,48
   12cb0:	00d70023          	sb	a3,0(a4)
	  if (i == ilim)
   12cb4:	00100713          	li	a4,1
	  goto one_digit;
	}
      for (i = 1;; i++)
	{
	  L = d.d / ds;
	  d.d -= L * ds;
   12cb8:	62f577c3          	fmadd.d	fa5,fa0,fa5,fa2
	      L--;
	      d.d += ds;
	    }
#endif
	  *s++ = '0' + (int) L;
	  if (i == ilim)
   12cbc:	2aea88e3          	beq	s5,a4,1376c <_dtoa_r+0x109c>
		      }
		  ++*s++;
		}
	      break;
	    }
	  if (!(d.d *= 10.))
   12cc0:	0001b7b7          	lui	a5,0x1b
   12cc4:	3307b587          	fld	fa1,816(a5) # 1b330 <__wctomb+0x30>
   12cc8:	f2000653          	fmv.d.x	fa2,zero
   12ccc:	12b7f7d3          	fmul.d	fa5,fa5,fa1
   12cd0:	a2c7a7d3          	feq.d	a5,fa5,fa2
   12cd4:	ec079ee3          	bnez	a5,12bb0 <_dtoa_r+0x4e0>
   12cd8:	ffea869b          	addiw	a3,s5,-2
   12cdc:	02069693          	slli	a3,a3,0x20
   12ce0:	00813783          	ld	a5,8(sp)
   12ce4:	0206d693          	srli	a3,a3,0x20
   12ce8:	00268693          	addi	a3,a3,2 # fffffffffcc00002 <_gp+0xfffffffffcbe4532>
   12cec:	00d786b3          	add	a3,a5,a3
   12cf0:	0100006f          	j	12d00 <_dtoa_r+0x630>
   12cf4:	12b7f7d3          	fmul.d	fa5,fa5,fa1
   12cf8:	a2c7a7d3          	feq.d	a5,fa5,fa2
   12cfc:	ea079ae3          	bnez	a5,12bb0 <_dtoa_r+0x4e0>
	    goto no_digits;
	  goto one_digit;
	}
      for (i = 1;; i++)
	{
	  L = d.d / ds;
   12d00:	1ad7f753          	fdiv.d	fa4,fa5,fa3
	    {
	      L--;
	      d.d += ds;
	    }
#endif
	  *s++ = '0' + (int) L;
   12d04:	00148493          	addi	s1,s1,1
	    goto no_digits;
	  goto one_digit;
	}
      for (i = 1;; i++)
	{
	  L = d.d / ds;
   12d08:	c20717d3          	fcvt.w.d	a5,fa4,rtz
	  d.d -= L * ds;
   12d0c:	d2078753          	fcvt.d.w	fa4,a5
	    {
	      L--;
	      d.d += ds;
	    }
#endif
	  *s++ = '0' + (int) L;
   12d10:	0307871b          	addiw	a4,a5,48
   12d14:	fee48fa3          	sb	a4,-1(s1)
	  goto one_digit;
	}
      for (i = 1;; i++)
	{
	  L = d.d / ds;
	  d.d -= L * ds;
   12d18:	7ae577c3          	fmadd.d	fa5,fa0,fa4,fa5
	      L--;
	      d.d += ds;
	    }
#endif
	  *s++ = '0' + (int) L;
	  if (i == ilim)
   12d1c:	fcd49ce3          	bne	s1,a3,12cf4 <_dtoa_r+0x624>
	    {
	      d.d += d.d;
   12d20:	02f7f7d3          	fadd.d	fa5,fa5,fa5
             if ((d.d > ds) || ((d.d == ds) && (L & 1)))
   12d24:	a2f69753          	flt.d	a4,fa3,fa5
   12d28:	7c070863          	beqz	a4,134f8 <_dtoa_r+0xe28>
   12d2c:	fff6c783          	lbu	a5,-1(a3)
   12d30:	00068493          	mv	s1,a3
		{
		bump_up:
		  while (*--s == '9')
   12d34:	03900693          	li	a3,57
   12d38:	0140006f          	j	12d4c <_dtoa_r+0x67c>
		    if (s == s0)
   12d3c:	00813783          	ld	a5,8(sp)
   12d40:	02f70ce3          	beq	a4,a5,13578 <_dtoa_r+0xea8>
   12d44:	fff74783          	lbu	a5,-1(a4)
   12d48:	00070493          	mv	s1,a4
	    {
	      d.d += d.d;
             if ((d.d > ds) || ((d.d == ds) && (L & 1)))
		{
		bump_up:
		  while (*--s == '9')
   12d4c:	fff48713          	addi	a4,s1,-1
   12d50:	fed786e3          	beq	a5,a3,12d3c <_dtoa_r+0x66c>
		      {
			k++;
			*s = '0';
			break;
		      }
		  ++*s++;
   12d54:	0017879b          	addiw	a5,a5,1
   12d58:	00f70023          	sb	a5,0(a4)
   12d5c:	e55ff06f          	j	12bb0 <_dtoa_r+0x4e0>
    }

  m2 = b2;
  m5 = b5;
  mhi = mlo = 0;
  if (leftright)
   12d60:	01012703          	lw	a4,16(sp)
   12d64:	1a070c63          	beqz	a4,12f1c <_dtoa_r+0x84c>
    {
      if (mode < 2)
   12d68:	00100693          	li	a3,1
   12d6c:	5536d863          	ble	s3,a3,132bc <_dtoa_r+0xbec>
	    1 + P - bbits;
#endif
	}
      else
	{
	  j = ilim - 1;
   12d70:	fffa869b          	addiw	a3,s5,-1
	  if (m5 >= j)
   12d74:	72dc4c63          	blt	s8,a3,134ac <_dtoa_r+0xddc>
	    m5 -= j;
   12d78:	40dc06bb          	subw	a3,s8,a3
	    break;
	}
      goto ret1;
    }

  m2 = b2;
   12d7c:	00080493          	mv	s1,a6
   12d80:	000a8793          	mv	a5,s5
	    {
	      s5 += j -= m5;
	      b5 += j;
	      m5 = 0;
	    }
	  if ((i = ilim) < 0)
   12d84:	120ac2e3          	bltz	s5,136a8 <_dtoa_r+0xfd8>
	    {
	      m2 -= i;
	      i = 0;
	    }
	}
      b2 += i;
   12d88:	00f8083b          	addw	a6,a6,a5
      s2 += i;
      mhi = i2b (ptr, 1);
   12d8c:	00100593          	li	a1,1
   12d90:	00040513          	mv	a0,s0
   12d94:	04d13423          	sd	a3,72(sp)
	    {
	      m2 -= i;
	      i = 0;
	    }
	}
      b2 += i;
   12d98:	05013023          	sd	a6,64(sp)
   12d9c:	03013c23          	sd	a6,56(sp)
      s2 += i;
   12da0:	00fd8dbb          	addw	s11,s11,a5
      mhi = i2b (ptr, 1);
   12da4:	720020ef          	jal	154c4 <__i2b>
   12da8:	04013803          	ld	a6,64(sp)
   12dac:	04813683          	ld	a3,72(sp)
   12db0:	00050a13          	mv	s4,a0
    }
  if (m2 > 0 && s2 > 0)
   12db4:	00048e63          	beqz	s1,12dd0 <_dtoa_r+0x700>
   12db8:	01b05c63          	blez	s11,12dd0 <_dtoa_r+0x700>
    {
      i = m2 < s2 ? m2 : s2;
   12dbc:	00048793          	mv	a5,s1
   12dc0:	489dc463          	blt	s11,s1,13248 <_dtoa_r+0xb78>
      b2 -= i;
   12dc4:	40f8083b          	subw	a6,a6,a5
      m2 -= i;
   12dc8:	40f484bb          	subw	s1,s1,a5
      s2 -= i;
   12dcc:	40fd8dbb          	subw	s11,s11,a5
      if (rve)
	*rve = s + 1;
      return s;
    }

  b = d2b (ptr, d.d, &be, &bbits);
   12dd0:	02013903          	ld	s2,32(sp)
      i = m2 < s2 ? m2 : s2;
      b2 -= i;
      m2 -= i;
      s2 -= i;
    }
  if (b5 > 0)
   12dd4:	07805e63          	blez	s8,12e50 <_dtoa_r+0x780>
    {
      if (leftright)
   12dd8:	01012783          	lw	a5,16(sp)
   12ddc:	6a078463          	beqz	a5,13484 <_dtoa_r+0xdb4>
	{
	  if (m5 > 0)
   12de0:	04068a63          	beqz	a3,12e34 <_dtoa_r+0x764>
	    {
	      mhi = pow5mult (ptr, mhi, m5);
   12de4:	00068613          	mv	a2,a3
   12de8:	000a0593          	mv	a1,s4
   12dec:	00040513          	mv	a0,s0
   12df0:	05013023          	sd	a6,64(sp)
   12df4:	02d13c23          	sd	a3,56(sp)
   12df8:	0f5020ef          	jal	156ec <__pow5mult>
	      b1 = mult (ptr, mhi, b);
   12dfc:	02013603          	ld	a2,32(sp)
   12e00:	00050593          	mv	a1,a0
    {
      if (leftright)
	{
	  if (m5 > 0)
	    {
	      mhi = pow5mult (ptr, mhi, m5);
   12e04:	00050a13          	mv	s4,a0
	      b1 = mult (ptr, mhi, b);
   12e08:	00040513          	mv	a0,s0
   12e0c:	6ec020ef          	jal	154f8 <__multiply>
	      Bfree (ptr, b);
	      b = b1;
	    }
         if ((j = b5 - m5) != 0)
   12e10:	03813683          	ld	a3,56(sp)
	{
	  if (m5 > 0)
	    {
	      mhi = pow5mult (ptr, mhi, m5);
	      b1 = mult (ptr, mhi, b);
	      Bfree (ptr, b);
   12e14:	02013583          	ld	a1,32(sp)
      if (leftright)
	{
	  if (m5 > 0)
	    {
	      mhi = pow5mult (ptr, mhi, m5);
	      b1 = mult (ptr, mhi, b);
   12e18:	00050913          	mv	s2,a0
	      Bfree (ptr, b);
   12e1c:	00040513          	mv	a0,s0
	      b = b1;
	    }
         if ((j = b5 - m5) != 0)
   12e20:	40dc0c3b          	subw	s8,s8,a3
	{
	  if (m5 > 0)
	    {
	      mhi = pow5mult (ptr, mhi, m5);
	      b1 = mult (ptr, mhi, b);
	      Bfree (ptr, b);
   12e24:	314020ef          	jal	15138 <_Bfree>
	      b = b1;
	    }
         if ((j = b5 - m5) != 0)
   12e28:	04013803          	ld	a6,64(sp)
   12e2c:	020c0263          	beqz	s8,12e50 <_dtoa_r+0x780>
	  if (m5 > 0)
	    {
	      mhi = pow5mult (ptr, mhi, m5);
	      b1 = mult (ptr, mhi, b);
	      Bfree (ptr, b);
	      b = b1;
   12e30:	03213023          	sd	s2,32(sp)
	    }
         if ((j = b5 - m5) != 0)
	    b = pow5mult (ptr, b, j);
   12e34:	02013583          	ld	a1,32(sp)
   12e38:	000c0613          	mv	a2,s8
   12e3c:	00040513          	mv	a0,s0
   12e40:	03013c23          	sd	a6,56(sp)
   12e44:	0a9020ef          	jal	156ec <__pow5mult>
   12e48:	03813803          	ld	a6,56(sp)
   12e4c:	00050913          	mv	s2,a0
	}
      else
	b = pow5mult (ptr, b, b5);
    }
  S = i2b (ptr, 1);
   12e50:	00100593          	li	a1,1
   12e54:	00040513          	mv	a0,s0
   12e58:	03013023          	sd	a6,32(sp)
   12e5c:	668020ef          	jal	154c4 <__i2b>
  if (s5 > 0)
   12e60:	02812783          	lw	a5,40(sp)
	    b = pow5mult (ptr, b, j);
	}
      else
	b = pow5mult (ptr, b, b5);
    }
  S = i2b (ptr, 1);
   12e64:	00050c13          	mv	s8,a0
  if (s5 > 0)
   12e68:	02013803          	ld	a6,32(sp)
   12e6c:	0c078c63          	beqz	a5,12f44 <_dtoa_r+0x874>
    S = pow5mult (ptr, S, s5);
   12e70:	00078613          	mv	a2,a5
   12e74:	00050593          	mv	a1,a0
   12e78:	00040513          	mv	a0,s0
   12e7c:	071020ef          	jal	156ec <__pow5mult>

  /* Check for special case that d is a normalized power of 2. */

  spec_case = 0;
  if (mode < 2)
   12e80:	00100793          	li	a5,1
      else
	b = pow5mult (ptr, b, b5);
    }
  S = i2b (ptr, 1);
  if (s5 > 0)
    S = pow5mult (ptr, S, s5);
   12e84:	00050c13          	mv	s8,a0

  /* Check for special case that d is a normalized power of 2. */

  spec_case = 0;
  if (mode < 2)
   12e88:	02013803          	ld	a6,32(sp)
   12e8c:	3d37c263          	blt	a5,s3,13250 <_dtoa_r+0xb80>
    {
      if (!word1 (d) && !(word0 (d) & Bndry_mask)
   12e90:	00cd1793          	slli	a5,s10,0xc
   12e94:	3a079e63          	bnez	a5,13250 <_dtoa_r+0xb80>
#ifndef Sudden_Underflow
	  && word0 (d) & Exp_mask
   12e98:	420d5693          	srai	a3,s10,0x20
   12e9c:	7ff007b7          	lui	a5,0x7ff00
   12ea0:	00f6f7b3          	and	a5,a3,a5
  if (s5 > 0)
    S = pow5mult (ptr, S, s5);

  /* Check for special case that d is a normalized power of 2. */

  spec_case = 0;
   12ea4:	02012023          	sw	zero,32(sp)
  if (mode < 2)
    {
      if (!word1 (d) && !(word0 (d) & Bndry_mask)
#ifndef Sudden_Underflow
	  && word0 (d) & Exp_mask
   12ea8:	00078a63          	beqz	a5,12ebc <_dtoa_r+0x7ec>
	)
	{
	  /* The special case */
	  b2 += Log2P;
	  s2 += Log2P;
	  spec_case = 1;
   12eac:	00100793          	li	a5,1
	  && word0 (d) & Exp_mask
#endif
	)
	{
	  /* The special case */
	  b2 += Log2P;
   12eb0:	0018081b          	addiw	a6,a6,1
	  s2 += Log2P;
   12eb4:	001d8d9b          	addiw	s11,s11,1
	  spec_case = 1;
   12eb8:	02f12023          	sw	a5,32(sp)
   * and for all and pass them and a shift to quorem, so it
   * can do shifts and ors to compute the numerator for q.
   */

#ifdef Pack_32
  if ((i = ((s5 ? 32 - hi0bits (S->_x[S->_wds - 1]) : 1) + s2) & 0x1f) != 0)
   12ebc:	02812783          	lw	a5,40(sp)
   12ec0:	00100513          	li	a0,1
   12ec4:	08078863          	beqz	a5,12f54 <_dtoa_r+0x884>
   12ec8:	014c2783          	lw	a5,20(s8)
   12ecc:	03013423          	sd	a6,40(sp)
   12ed0:	fff7879b          	addiw	a5,a5,-1
   12ed4:	00478793          	addi	a5,a5,4 # 7ff00004 <_gp+0x7fee4534>
   12ed8:	00279793          	slli	a5,a5,0x2
   12edc:	00fc07b3          	add	a5,s8,a5
   12ee0:	0087a503          	lw	a0,8(a5)
   12ee4:	4b4020ef          	jal	15398 <__hi0bits>
   12ee8:	02000793          	li	a5,32
   12eec:	40a7853b          	subw	a0,a5,a0
   12ef0:	02813803          	ld	a6,40(sp)
   12ef4:	0600006f          	j	12f54 <_dtoa_r+0x884>
  ds = (d2.d - 1.5) * 0.289529651 + 0.176091269 + i * 0.30103001;
#else
  ds = (d2.d - 1.5) * 0.289529654602168 + 0.1760912590558 + i * 0.301029995663981;
#endif
  k = (int) ds;
  if (ds < 0. && ds != k)
   12ef8:	d20b8753          	fcvt.d.w	fa4,s7
    k--;			/* want k = floor(ds) */
   12efc:	a2e7a7d3          	feq.d	a5,fa5,fa4
   12f00:	0017b793          	seqz	a5,a5
   12f04:	40fb8bbb          	subw	s7,s7,a5
   12f08:	9f9ff06f          	j	12900 <_dtoa_r+0x230>
      s5 = k;
      s2 += k;
    }
  else
    {
      b2 -= k;
   12f0c:	4178083b          	subw	a6,a6,s7
      b5 = -k;
   12f10:	41700c3b          	negw	s8,s7
      s5 = 0;
   12f14:	02012423          	sw	zero,40(sp)
   12f18:	a41ff06f          	j	12958 <_dtoa_r+0x288>
   12f1c:	000c0693          	mv	a3,s8
	    break;
	}
      goto ret1;
    }

  m2 = b2;
   12f20:	00080493          	mv	s1,a6
  m5 = b5;
  mhi = mlo = 0;
   12f24:	00000a13          	li	s4,0
   12f28:	e8dff06f          	j	12db4 <_dtoa_r+0x6e4>
      i = bbits + be + (Bias + (P - 1) - 1);
#if defined (_DOUBLE_IS_32BITS)
      x = word0 (d) << (32 - i);
#else
      x = (i > 32) ? (word0 (d) << (64 - i)) | (word1 (d) >> (i - 32))
       : (word1 (d) << (32 - i));
   12f2c:	000d049b          	sext.w	s1,s10
   12f30:	40d787bb          	subw	a5,a5,a3
   12f34:	00f494bb          	sllw	s1,s1,a5
   12f38:	959ff06f          	j	12890 <_dtoa_r+0x1c0>
  k_check = 1;
  if (k >= 0 && k <= Ten_pmax)
    {
      if (d.d < tens[k])
	k--;
      k_check = 0;
   12f3c:	02012823          	sw	zero,48(sp)
   12f40:	9f9ff06f          	j	12938 <_dtoa_r+0x268>
    S = pow5mult (ptr, S, s5);

  /* Check for special case that d is a normalized power of 2. */

  spec_case = 0;
  if (mode < 2)
   12f44:	00100793          	li	a5,1
   12f48:	0737d4e3          	ble	s3,a5,137b0 <_dtoa_r+0x10e0>
  if (s5 > 0)
    S = pow5mult (ptr, S, s5);

  /* Check for special case that d is a normalized power of 2. */

  spec_case = 0;
   12f4c:	02012023          	sw	zero,32(sp)
   * and for all and pass them and a shift to quorem, so it
   * can do shifts and ors to compute the numerator for q.
   */

#ifdef Pack_32
  if ((i = ((s5 ? 32 - hi0bits (S->_x[S->_wds - 1]) : 1) + s2) & 0x1f) != 0)
   12f50:	00078513          	mv	a0,a5
   12f54:	01b507bb          	addw	a5,a0,s11
   12f58:	01f7f793          	andi	a5,a5,31
   12f5c:	1a078663          	beqz	a5,13108 <_dtoa_r+0xa38>
    i = 32 - i;
   12f60:	02000693          	li	a3,32
   12f64:	40f686bb          	subw	a3,a3,a5
#else
  if ((i = ((s5 ? 32 - hi0bits (S->_x[S->_wds - 1]) : 1) + s2) & 0xf) != 0)
    i = 16 - i;
#endif
  if (i > 4)
   12f68:	00400613          	li	a2,4
   12f6c:	04d658e3          	ble	a3,a2,137bc <_dtoa_r+0x10ec>
    {
      i -= 4;
   12f70:	01c00693          	li	a3,28
   12f74:	40f687bb          	subw	a5,a3,a5
      b2 += i;
   12f78:	00f8083b          	addw	a6,a6,a5
      m2 += i;
   12f7c:	00f484bb          	addw	s1,s1,a5
      s2 += i;
   12f80:	00fd8dbb          	addw	s11,s11,a5
      i += 28;
      b2 += i;
      m2 += i;
      s2 += i;
    }
  if (b2 > 0)
   12f84:	01005c63          	blez	a6,12f9c <_dtoa_r+0x8cc>
    b = lshift (ptr, b, b2);
   12f88:	00090593          	mv	a1,s2
   12f8c:	00080613          	mv	a2,a6
   12f90:	00040513          	mv	a0,s0
   12f94:	091020ef          	jal	15824 <__lshift>
   12f98:	00050913          	mv	s2,a0
  if (s2 > 0)
   12f9c:	01b05c63          	blez	s11,12fb4 <_dtoa_r+0x8e4>
    S = lshift (ptr, S, s2);
   12fa0:	000c0593          	mv	a1,s8
   12fa4:	000d8613          	mv	a2,s11
   12fa8:	00040513          	mv	a0,s0
   12fac:	079020ef          	jal	15824 <__lshift>
   12fb0:	00050c13          	mv	s8,a0
  if (k_check)
   12fb4:	03012783          	lw	a5,48(sp)
   12fb8:	22079663          	bnez	a5,131e4 <_dtoa_r+0xb14>
	  if (leftright)
	    mhi = multadd (ptr, mhi, 10, 0);
	  ilim = ilim1;
	}
    }
  if (ilim <= 0 && mode > 2)
   12fbc:	3f505e63          	blez	s5,133b8 <_dtoa_r+0xce8>
    one_digit:
      *s++ = '1';
      k++;
      goto ret;
    }
  if (leftright)
   12fc0:	01012783          	lw	a5,16(sp)
   12fc4:	14078c63          	beqz	a5,1311c <_dtoa_r+0xa4c>
    {
      if (m2 > 0)
   12fc8:	00905c63          	blez	s1,12fe0 <_dtoa_r+0x910>
	mhi = lshift (ptr, mhi, m2);
   12fcc:	000a0593          	mv	a1,s4
   12fd0:	00048613          	mv	a2,s1
   12fd4:	00040513          	mv	a0,s0
   12fd8:	04d020ef          	jal	15824 <__lshift>
   12fdc:	00050a13          	mv	s4,a0
      /* Compute mlo -- check for special case
       * that d is a normalized power of 2.
       */

      mlo = mhi;
      if (spec_case)
   12fe0:	02012783          	lw	a5,32(sp)
   12fe4:	000a0d93          	mv	s11,s4
   12fe8:	5a079463          	bnez	a5,13590 <_dtoa_r+0xec0>
   12fec:	fffa849b          	addiw	s1,s5,-1
   12ff0:	00813783          	ld	a5,8(sp)
   12ff4:	02049493          	slli	s1,s1,0x20
   12ff8:	0204d493          	srli	s1,s1,0x20
   12ffc:	00148493          	addi	s1,s1,1
   13000:	009784b3          	add	s1,a5,s1
   13004:	00078c93          	mv	s9,a5
	  j = cmp (b, mlo);
	  delta = diff (ptr, S, mhi);
	  j1 = delta->_sign ? 1 : cmp (b, delta);
	  Bfree (ptr, delta);
#ifndef ROUND_BIASED
	  if (j1 == 0 && !mode && !(word1 (d) & 1))
   13008:	001d7793          	andi	a5,s10,1
   1300c:	00f13823          	sd	a5,16(sp)
	  mhi = lshift (ptr, mhi, Log2P);
	}

      for (i = 1;; i++)
	{
	  dig = quorem (b, S) + '0';
   13010:	000c0593          	mv	a1,s8
   13014:	00090513          	mv	a0,s2
   13018:	cccff0ef          	jal	124e4 <quorem>
   1301c:	00050d13          	mv	s10,a0
   13020:	02a12823          	sw	a0,48(sp)
	  /* Do we yet have the shortest decimal string
	   * that will round to d?
	   */
	  j = cmp (b, mlo);
   13024:	000a0593          	mv	a1,s4
   13028:	00090513          	mv	a0,s2
   1302c:	159020ef          	jal	15984 <__mcmp>
   13030:	00050a93          	mv	s5,a0
	  delta = diff (ptr, S, mhi);
   13034:	000d8613          	mv	a2,s11
   13038:	000c0593          	mv	a1,s8
   1303c:	00040513          	mv	a0,s0
   13040:	1a5020ef          	jal	159e4 <__mdiff>
	  j1 = delta->_sign ? 1 : cmp (b, delta);
   13044:	01052683          	lw	a3,16(a0)
	  dig = quorem (b, S) + '0';
	  /* Do we yet have the shortest decimal string
	   * that will round to d?
	   */
	  j = cmp (b, mlo);
	  delta = diff (ptr, S, mhi);
   13048:	00050793          	mv	a5,a0
	  mhi = lshift (ptr, mhi, Log2P);
	}

      for (i = 1;; i++)
	{
	  dig = quorem (b, S) + '0';
   1304c:	030d0d1b          	addiw	s10,s10,48
	  /* Do we yet have the shortest decimal string
	   * that will round to d?
	   */
	  j = cmp (b, mlo);
	  delta = diff (ptr, S, mhi);
	  j1 = delta->_sign ? 1 : cmp (b, delta);
   13050:	00100713          	li	a4,1
   13054:	00069e63          	bnez	a3,13070 <_dtoa_r+0x9a0>
   13058:	00050593          	mv	a1,a0
   1305c:	02a13023          	sd	a0,32(sp)
   13060:	00090513          	mv	a0,s2
   13064:	121020ef          	jal	15984 <__mcmp>
   13068:	02013783          	ld	a5,32(sp)
   1306c:	00050713          	mv	a4,a0
	  Bfree (ptr, delta);
   13070:	00078593          	mv	a1,a5
   13074:	00040513          	mv	a0,s0
   13078:	02e13023          	sd	a4,32(sp)
   1307c:	0bc020ef          	jal	15138 <_Bfree>
#ifndef ROUND_BIASED
	  if (j1 == 0 && !mode && !(word1 (d) & 1))
   13080:	02013703          	ld	a4,32(sp)
   13084:	013767b3          	or	a5,a4,s3
   13088:	00079663          	bnez	a5,13094 <_dtoa_r+0x9c4>
   1308c:	01012783          	lw	a5,16(sp)
   13090:	24078063          	beqz	a5,132d0 <_dtoa_r+0xc00>
		dig++;
	      *s++ = dig;
	      goto ret;
	    }
#endif
         if ((j < 0) || ((j == 0) && !mode
   13094:	260ac463          	bltz	s5,132fc <_dtoa_r+0xc2c>
   13098:	013aeab3          	or	s5,s5,s3
   1309c:	000a9663          	bnez	s5,130a8 <_dtoa_r+0x9d8>
#ifndef ROUND_BIASED
	      && !(word1 (d) & 1)
   130a0:	01012783          	lw	a5,16(sp)
   130a4:	24078c63          	beqz	a5,132fc <_dtoa_r+0xc2c>
		    goto round_9_up;
		}
	      *s++ = dig;
	      goto ret;
	    }
	  if (j1 > 0)
   130a8:	5ee04263          	bgtz	a4,1368c <_dtoa_r+0xfbc>
		  goto roundoff;
		}
	      *s++ = dig + 1;
	      goto ret;
	    }
	  *s++ = dig;
   130ac:	001c8c93          	addi	s9,s9,1
   130b0:	ffac8fa3          	sb	s10,-1(s9)
	  if (i == ilim)
   130b4:	5f948463          	beq	s1,s9,1369c <_dtoa_r+0xfcc>
	    break;
	  b = multadd (ptr, b, 10, 0);
   130b8:	00090593          	mv	a1,s2
   130bc:	00000693          	li	a3,0
   130c0:	00a00613          	li	a2,10
   130c4:	00040513          	mv	a0,s0
   130c8:	094020ef          	jal	1515c <__multadd>
   130cc:	00050913          	mv	s2,a0
	  if (mlo == mhi)
	    mlo = mhi = multadd (ptr, mhi, 10, 0);
   130d0:	00000693          	li	a3,0
   130d4:	00a00613          	li	a2,10
   130d8:	000a0593          	mv	a1,s4
   130dc:	00040513          	mv	a0,s0
	    }
	  *s++ = dig;
	  if (i == ilim)
	    break;
	  b = multadd (ptr, b, 10, 0);
	  if (mlo == mhi)
   130e0:	27ba0463          	beq	s4,s11,13348 <_dtoa_r+0xc78>
	    mlo = mhi = multadd (ptr, mhi, 10, 0);
	  else
	    {
	      mlo = multadd (ptr, mlo, 10, 0);
   130e4:	078020ef          	jal	1515c <__multadd>
	      mhi = multadd (ptr, mhi, 10, 0);
   130e8:	000d8593          	mv	a1,s11
	  b = multadd (ptr, b, 10, 0);
	  if (mlo == mhi)
	    mlo = mhi = multadd (ptr, mhi, 10, 0);
	  else
	    {
	      mlo = multadd (ptr, mlo, 10, 0);
   130ec:	00050a13          	mv	s4,a0
	      mhi = multadd (ptr, mhi, 10, 0);
   130f0:	00000693          	li	a3,0
   130f4:	00a00613          	li	a2,10
   130f8:	00040513          	mv	a0,s0
   130fc:	060020ef          	jal	1515c <__multadd>
   13100:	00050d93          	mv	s11,a0
	    }
	}
   13104:	f0dff06f          	j	13010 <_dtoa_r+0x940>
   13108:	01c00793          	li	a5,28
      s2 += i;
    }
  else if (i < 4)
    {
      i += 28;
      b2 += i;
   1310c:	00f8083b          	addw	a6,a6,a5
      m2 += i;
   13110:	00f484bb          	addw	s1,s1,a5
      s2 += i;
   13114:	00fd8dbb          	addw	s11,s11,a5
   13118:	e6dff06f          	j	12f84 <_dtoa_r+0x8b4>
	  *s++ = dig;
	  if (i == ilim)
	    break;
	  b = multadd (ptr, b, 10, 0);
	  if (mlo == mhi)
	    mlo = mhi = multadd (ptr, mhi, 10, 0);
   1311c:	00813483          	ld	s1,8(sp)
   13120:	00100993          	li	s3,1
   13124:	0100006f          	j	13134 <_dtoa_r+0xa64>
    for (i = 1;; i++)
      {
	*s++ = dig = quorem (b, S) + '0';
	if (i >= ilim)
	  break;
	b = multadd (ptr, b, 10, 0);
   13128:	034020ef          	jal	1515c <__multadd>
   1312c:	00050913          	mv	s2,a0
	      mhi = multadd (ptr, mhi, 10, 0);
	    }
	}
    }
  else
    for (i = 1;; i++)
   13130:	0019899b          	addiw	s3,s3,1
      {
	*s++ = dig = quorem (b, S) + '0';
   13134:	000c0593          	mv	a1,s8
   13138:	00090513          	mv	a0,s2
   1313c:	ba8ff0ef          	jal	124e4 <quorem>
   13140:	03050d1b          	addiw	s10,a0,48
   13144:	00148493          	addi	s1,s1,1
   13148:	ffa48fa3          	sb	s10,-1(s1)
	if (i >= ilim)
	  break;
	b = multadd (ptr, b, 10, 0);
   1314c:	00000693          	li	a3,0
   13150:	00a00613          	li	a2,10
   13154:	00090593          	mv	a1,s2
   13158:	00040513          	mv	a0,s0
    }
  else
    for (i = 1;; i++)
      {
	*s++ = dig = quorem (b, S) + '0';
	if (i >= ilim)
   1315c:	fd59c6e3          	blt	s3,s5,13128 <_dtoa_r+0xa58>
      goto ret1;
    }

  m2 = b2;
  m5 = b5;
  mhi = mlo = 0;
   13160:	00000993          	li	s3,0
	b = multadd (ptr, b, 10, 0);
      }

  /* Round off last digit */

  b = lshift (ptr, b, 1);
   13164:	00090593          	mv	a1,s2
   13168:	00100613          	li	a2,1
   1316c:	00040513          	mv	a0,s0
   13170:	6b4020ef          	jal	15824 <__lshift>
  j = cmp (b, S);
   13174:	000c0593          	mv	a1,s8
	b = multadd (ptr, b, 10, 0);
      }

  /* Round off last digit */

  b = lshift (ptr, b, 1);
   13178:	02a13023          	sd	a0,32(sp)
  j = cmp (b, S);
   1317c:	009020ef          	jal	15984 <__mcmp>
  if ((j > 0) || ((j == 0) && (dig & 1)))
   13180:	34a05463          	blez	a0,134c8 <_dtoa_r+0xdf8>
   13184:	fff4c703          	lbu	a4,-1(s1)
    {
    roundoff:
      while (*--s == '9')
   13188:	03900693          	li	a3,57
   1318c:	0140006f          	j	131a0 <_dtoa_r+0xad0>
	if (s == s0)
   13190:	00813703          	ld	a4,8(sp)
   13194:	26e78a63          	beq	a5,a4,13408 <_dtoa_r+0xd38>
   13198:	fff7c703          	lbu	a4,-1(a5)
   1319c:	00078493          	mv	s1,a5
  b = lshift (ptr, b, 1);
  j = cmp (b, S);
  if ((j > 0) || ((j == 0) && (dig & 1)))
    {
    roundoff:
      while (*--s == '9')
   131a0:	fff48793          	addi	a5,s1,-1
   131a4:	fed706e3          	beq	a4,a3,13190 <_dtoa_r+0xac0>
	  {
	    k++;
	    *s++ = '1';
	    goto ret;
	  }
      ++*s++;
   131a8:	0017071b          	addiw	a4,a4,1
   131ac:	00e78023          	sb	a4,0(a5)
    {
      while (*--s == '0');
      s++;
    }
ret:
  Bfree (ptr, S);
   131b0:	000c0593          	mv	a1,s8
   131b4:	00040513          	mv	a0,s0
   131b8:	781010ef          	jal	15138 <_Bfree>
  if (mhi)
   131bc:	9e0a0ae3          	beqz	s4,12bb0 <_dtoa_r+0x4e0>
    {
      if (mlo && mlo != mhi)
   131c0:	00098a63          	beqz	s3,131d4 <_dtoa_r+0xb04>
   131c4:	01498863          	beq	s3,s4,131d4 <_dtoa_r+0xb04>
	Bfree (ptr, mlo);
   131c8:	00098593          	mv	a1,s3
   131cc:	00040513          	mv	a0,s0
   131d0:	769010ef          	jal	15138 <_Bfree>
      Bfree (ptr, mhi);
   131d4:	000a0593          	mv	a1,s4
   131d8:	00040513          	mv	a0,s0
   131dc:	75d010ef          	jal	15138 <_Bfree>
   131e0:	9d1ff06f          	j	12bb0 <_dtoa_r+0x4e0>
    b = lshift (ptr, b, b2);
  if (s2 > 0)
    S = lshift (ptr, S, s2);
  if (k_check)
    {
      if (cmp (b, S) < 0)
   131e4:	000c0593          	mv	a1,s8
   131e8:	00090513          	mv	a0,s2
   131ec:	798020ef          	jal	15984 <__mcmp>
   131f0:	dc0556e3          	bgez	a0,12fbc <_dtoa_r+0x8ec>
	{
	  k--;
	  b = multadd (ptr, b, 10, 0);	/* we botched the k estimate */
   131f4:	00090593          	mv	a1,s2
   131f8:	00000693          	li	a3,0
   131fc:	00a00613          	li	a2,10
   13200:	00040513          	mv	a0,s0
   13204:	759010ef          	jal	1515c <__multadd>
	  if (leftright)
   13208:	01012783          	lw	a5,16(sp)
  if (k_check)
    {
      if (cmp (b, S) < 0)
	{
	  k--;
	  b = multadd (ptr, b, 10, 0);	/* we botched the k estimate */
   1320c:	00050913          	mv	s2,a0
    S = lshift (ptr, S, s2);
  if (k_check)
    {
      if (cmp (b, S) < 0)
	{
	  k--;
   13210:	fffb8b9b          	addiw	s7,s7,-1
	  b = multadd (ptr, b, 10, 0);	/* we botched the k estimate */
	  if (leftright)
   13214:	56079063          	bnez	a5,13774 <_dtoa_r+0x10a4>
	    mhi = multadd (ptr, mhi, 10, 0);
	  ilim = ilim1;
	}
    }
  if (ilim <= 0 && mode > 2)
   13218:	03412783          	lw	a5,52(sp)
   1321c:	00078a93          	mv	s5,a5
   13220:	eef04ee3          	bgtz	a5,1311c <_dtoa_r+0xa4c>
   13224:	00200793          	li	a5,2
   13228:	5937c063          	blt	a5,s3,137a8 <_dtoa_r+0x10d8>
	}
    }
  else
    for (i = 1;; i++)
      {
	*s++ = dig = quorem (b, S) + '0';
   1322c:	000c0593          	mv	a1,s8
   13230:	ab4ff0ef          	jal	124e4 <quorem>
   13234:	00813783          	ld	a5,8(sp)
   13238:	03050d1b          	addiw	s10,a0,48
   1323c:	00178493          	addi	s1,a5,1
   13240:	ffa48fa3          	sb	s10,-1(s1)
   13244:	f1dff06f          	j	13160 <_dtoa_r+0xa90>
      s2 += i;
      mhi = i2b (ptr, 1);
    }
  if (m2 > 0 && s2 > 0)
    {
      i = m2 < s2 ? m2 : s2;
   13248:	000d8793          	mv	a5,s11
   1324c:	b79ff06f          	j	12dc4 <_dtoa_r+0x6f4>
  if (s5 > 0)
    S = pow5mult (ptr, S, s5);

  /* Check for special case that d is a normalized power of 2. */

  spec_case = 0;
   13250:	02012023          	sw	zero,32(sp)
   13254:	c75ff06f          	j	12ec8 <_dtoa_r+0x7f8>
  if (mode > 5)
    {
      mode -= 4;
      try_quick = 0;
    }
  leftright = 1;
   13258:	00100793          	li	a5,1
   1325c:	00f12823          	sw	a5,16(sp)
      break;
    case 2:
      leftright = 0;
      /* no break */
    case 4:
      if (ndigits <= 0)
   13260:	0f905c63          	blez	s9,13358 <_dtoa_r+0xc88>
   13264:	000c8513          	mv	a0,s9
   13268:	000c8493          	mv	s1,s9
   1326c:	03912a23          	sw	s9,52(sp)
   13270:	000c8a93          	mv	s5,s9
   13274:	f3cff06f          	j	129b0 <_dtoa_r+0x2e0>

  if (be >= 0 && k <= Int_max)
    {
      /* Yes. */
      ds = tens[k];
      if (ndigits < 0 && ilim <= 0)
   13278:	a1504ce3          	bgtz	s5,12c90 <_dtoa_r+0x5c0>
	{
	  S = mhi = 0;
	  if (ilim < 0 || d.d <= 5 * ds)
   1327c:	1e0a9e63          	bnez	s5,13478 <_dtoa_r+0xda8>
   13280:	0001b7b7          	lui	a5,0x1b
   13284:	3407b787          	fld	fa5,832(a5) # 1b340 <__wctomb+0x40>
    {
      /* Yes. */
      ds = tens[k];
      if (ndigits < 0 && ilim <= 0)
	{
	  S = mhi = 0;
   13288:	00000c13          	li	s8,0
   1328c:	00000a13          	li	s4,0
	  if (ilim < 0 || d.d <= 5 * ds)
   13290:	12f6f6d3          	fmul.d	fa3,fa3,fa5
   13294:	f20d07d3          	fmv.d.x	fa5,s10
   13298:	a2d78753          	fle.d	a4,fa5,fa3
   1329c:	14070a63          	beqz	a4,133f0 <_dtoa_r+0xd20>
      if (ilim < 0 || cmp (b, S = multadd (ptr, S, 5, 0)) <= 0)
	{
	  /* no digits, fcvt style */
	no_digits:
	  k = -1 - ndigits;
	  goto ret;
   132a0:	00813483          	ld	s1,8(sp)
    {
      if (ilim < 0 || cmp (b, S = multadd (ptr, S, 5, 0)) <= 0)
	{
	  /* no digits, fcvt style */
	no_digits:
	  k = -1 - ndigits;
   132a4:	fffccb93          	not	s7,s9
    {
      while (*--s == '0');
      s++;
    }
ret:
  Bfree (ptr, S);
   132a8:	000c0593          	mv	a1,s8
   132ac:	00040513          	mv	a0,s0
   132b0:	689010ef          	jal	15138 <_Bfree>
  if (mhi)
   132b4:	8e0a0ee3          	beqz	s4,12bb0 <_dtoa_r+0x4e0>
   132b8:	f1dff06f          	j	131d4 <_dtoa_r+0xb04>
    {
      if (mode < 2)
	{
	  i =
#ifndef Sudden_Underflow
	    denorm ? be + (Bias + (P - 1) - 1 + 1) :
   132bc:	3e090c63          	beqz	s2,136b4 <_dtoa_r+0xfe4>
   132c0:	4337879b          	addiw	a5,a5,1075
   132c4:	000c0693          	mv	a3,s8
	    break;
	}
      goto ret1;
    }

  m2 = b2;
   132c8:	00080493          	mv	s1,a6
   132cc:	abdff06f          	j	12d88 <_dtoa_r+0x6b8>
	  j1 = delta->_sign ? 1 : cmp (b, delta);
	  Bfree (ptr, delta);
#ifndef ROUND_BIASED
	  if (j1 == 0 && !mode && !(word1 (d) & 1))
	    {
	      if (dig == '9')
   132d0:	03900793          	li	a5,57
   132d4:	04fd0a63          	beq	s10,a5,13328 <_dtoa_r+0xc58>
		goto round_9_up;
	      if (j > 0)
   132d8:	01505663          	blez	s5,132e4 <_dtoa_r+0xc14>
	      if (j1 > 0)
		{
		  b = lshift (ptr, b, 1);
		  j1 = cmp (b, S);
                 if (((j1 > 0) || ((j1 == 0) && (dig & 1)))
		      && dig++ == '9')
   132dc:	03012783          	lw	a5,48(sp)
   132e0:	03178d1b          	addiw	s10,a5,49
		round_9_up:
		  *s++ = '9';
		  goto roundoff;
		}
	      *s++ = dig + 1;
	      goto ret;
   132e4:	000a0993          	mv	s3,s4
		{		/* possible if i == 1 */
		round_9_up:
		  *s++ = '9';
		  goto roundoff;
		}
	      *s++ = dig + 1;
   132e8:	001c8493          	addi	s1,s9,1
   132ec:	01ac8023          	sb	s10,0(s9)
	      goto ret;
   132f0:	000d8a13          	mv	s4,s11
   132f4:	03213023          	sd	s2,32(sp)
   132f8:	eb9ff06f          	j	131b0 <_dtoa_r+0xae0>
#ifndef ROUND_BIASED
	      && !(word1 (d) & 1)
#endif
           ))
	    {
	      if (j1 > 0)
   132fc:	fee054e3          	blez	a4,132e4 <_dtoa_r+0xc14>
		{
		  b = lshift (ptr, b, 1);
   13300:	00090593          	mv	a1,s2
   13304:	00100613          	li	a2,1
   13308:	00040513          	mv	a0,s0
   1330c:	518020ef          	jal	15824 <__lshift>
		  j1 = cmp (b, S);
   13310:	000c0593          	mv	a1,s8
#endif
           ))
	    {
	      if (j1 > 0)
		{
		  b = lshift (ptr, b, 1);
   13314:	00050913          	mv	s2,a0
		  j1 = cmp (b, S);
   13318:	66c020ef          	jal	15984 <__mcmp>
                 if (((j1 > 0) || ((j1 == 0) && (dig & 1)))
   1331c:	44a05063          	blez	a0,1375c <_dtoa_r+0x108c>
		      && dig++ == '9')
   13320:	03900793          	li	a5,57
   13324:	fafd1ce3          	bne	s10,a5,132dc <_dtoa_r+0xc0c>
	  if (j1 > 0)
	    {
	      if (dig == '9')
		{		/* possible if i == 1 */
		round_9_up:
		  *s++ = '9';
   13328:	03900793          	li	a5,57
		  goto roundoff;
   1332c:	000a0993          	mv	s3,s4
	  if (j1 > 0)
	    {
	      if (dig == '9')
		{		/* possible if i == 1 */
		round_9_up:
		  *s++ = '9';
   13330:	001c8493          	addi	s1,s9,1
   13334:	00fc8023          	sb	a5,0(s9)
		  goto roundoff;
   13338:	000d8a13          	mv	s4,s11
   1333c:	03213023          	sd	s2,32(sp)
   13340:	03900713          	li	a4,57
   13344:	e45ff06f          	j	13188 <_dtoa_r+0xab8>
	  *s++ = dig;
	  if (i == ilim)
	    break;
	  b = multadd (ptr, b, 10, 0);
	  if (mlo == mhi)
	    mlo = mhi = multadd (ptr, mhi, 10, 0);
   13348:	615010ef          	jal	1515c <__multadd>
   1334c:	00050a13          	mv	s4,a0
   13350:	00050d93          	mv	s11,a0
   13354:	cbdff06f          	j	13010 <_dtoa_r+0x940>
   13358:	00100493          	li	s1,1
    case 2:
      leftright = 0;
      /* no break */
    case 4:
      if (ndigits <= 0)
	ndigits = 1;
   1335c:	02912a23          	sw	s1,52(sp)
   13360:	00048a93          	mv	s5,s1
   13364:	00048c93          	mv	s9,s1
      ilim1 = i - 1;
      if (i <= 0)
	i = 1;
    }
  j = sizeof (__ULong);
  for (_REENT_MP_RESULT_K(ptr) = 0; sizeof (_Bigint) - sizeof (__ULong) + j <= i;
   13368:	06042423          	sw	zero,104(s0)
   1336c:	00000593          	li	a1,0
   13370:	e74ff06f          	j	129e4 <_dtoa_r+0x314>
    case 1:
      i = 18;
      ndigits = 0;
      break;
    case 2:
      leftright = 0;
